	.file	"child.c"
	.option nopic
	.attribute arch, "rv64i2p1_m2p0_a2p1_f2p2_d2p2_c2p0_zicsr2p0"
	.attribute unaligned_access, 0
	.attribute stack_align, 16
	.text
.Ltext0:
	.cfi_sections	.debug_frame
	.file 0 "/Users/ab25cq/minux9" "child.c"
	.align	1
	.type	write, @function
write:
.LFB0:
	.file 1 "minux.h"
	.loc 1 18 63
	.cfi_startproc
	addi	sp,sp,-48
	.cfi_def_cfa_offset 48
	sd	a0,24(sp)
	sd	a1,16(sp)
	sd	a2,8(sp)
	.loc 1 20 5
	ld	a5,24(sp)
	ld	a4,16(sp)
	ld	a3,8(sp)
 #APP
# 20 "minux.h" 1
	mv   a0, a5    
mv   a1, a4    
mv   a2, a3    
li   a7, 64    
ecall          
mv   a5, a0    

# 0 "" 2
 #NO_APP
	sd	a5,40(sp)
	.loc 1 34 12
	ld	a5,40(sp)
	.loc 1 35 1
	mv	a0,a5
	addi	sp,sp,48
	.cfi_def_cfa_offset 0
	jr	ra
	.cfi_endproc
.LFE0:
	.size	write, .-write
	.align	1
	.type	execv, @function
execv:
.LFB4:
	.loc 1 94 60
	.cfi_startproc
	addi	sp,sp,-48
	.cfi_def_cfa_offset 48
	sd	a0,24(sp)
	sd	a1,16(sp)
	mv	a5,a2
	sw	a5,12(sp)
	.loc 1 96 5
	ld	a5,24(sp)
	ld	a4,16(sp)
	lw	a3,12(sp)
 #APP
# 96 "minux.h" 1
	mv   a0, a5    
mv   a1, a4    
mv   a2, a3    
li   a7, 69    
ecall          
mv   a5, a0    

# 0 "" 2
 #NO_APP
	sw	a5,44(sp)
	.loc 1 110 12
	lw	a5,44(sp)
	.loc 1 111 1
	mv	a0,a5
	addi	sp,sp,48
	.cfi_def_cfa_offset 0
	jr	ra
	.cfi_endproc
.LFE4:
	.size	execv, .-execv
	.align	1
	.type	exit, @function
exit:
.LFB5:
	.loc 1 113 38
	.cfi_startproc
	addi	sp,sp,-16
	.cfi_def_cfa_offset 16
	sd	a0,8(sp)
	.loc 1 114 5
	ld	a5,8(sp)
 #APP
# 114 "minux.h" 1
	mv   a0, a5   
li   a7, 70   
ecall         

# 0 "" 2
 #NO_APP
.L6:
	.loc 1 123 10
	j	.L6
	.cfi_endproc
.LFE5:
	.size	exit, .-exit
	.align	1
	.type	wait, @function
wait:
.LFB6:
	.loc 1 127 39
	.cfi_startproc
	addi	sp,sp,-32
	.cfi_def_cfa_offset 32
	sd	a0,8(sp)
	.loc 1 129 5
	ld	a5,8(sp)
 #APP
# 129 "minux.h" 1
	mv   a0, a5    
li   a7, 71    
ecall          
mv   a5, a0    

# 0 "" 2
 #NO_APP
	sw	a5,28(sp)
	.loc 1 139 12
	lw	a5,28(sp)
	.loc 1 140 1
	mv	a0,a5
	addi	sp,sp,32
	.cfi_def_cfa_offset 0
	jr	ra
	.cfi_endproc
.LFE6:
	.size	wait, .-wait
	.align	1
	.type	dup2, @function
dup2:
.LFB7:
	.loc 1 143 46
	.cfi_startproc
	addi	sp,sp,-32
	.cfi_def_cfa_offset 32
	mv	a5,a0
	mv	a4,a1
	sw	a5,12(sp)
	mv	a5,a4
	sw	a5,8(sp)
	.loc 1 145 5
	lw	a5,12(sp)
	lw	a4,8(sp)
 #APP
# 145 "minux.h" 1
	mv   a0, a5    
mv   a1, a4    
li   a7, 72    
ecall          
mv   a5, a0    

# 0 "" 2
 #NO_APP
	sw	a5,28(sp)
	.loc 1 157 12
	lw	a5,28(sp)
	.loc 1 158 1
	mv	a0,a5
	addi	sp,sp,32
	.cfi_def_cfa_offset 0
	jr	ra
	.cfi_endproc
.LFE7:
	.size	dup2, .-dup2
	.align	1
	.type	pipe, @function
pipe:
.LFB8:
	.loc 1 179 34
	.cfi_startproc
	addi	sp,sp,-32
	.cfi_def_cfa_offset 32
	sd	a0,8(sp)
	.loc 1 181 5
	ld	a5,8(sp)
 #APP
# 181 "minux.h" 1
	mv   a0, a5    
li   a7, 73    
ecall          
mv   a5, a0    

# 0 "" 2
 #NO_APP
	sw	a5,28(sp)
	.loc 1 191 12
	lw	a5,28(sp)
	.loc 1 192 1
	mv	a0,a5
	addi	sp,sp,32
	.cfi_def_cfa_offset 0
	jr	ra
	.cfi_endproc
.LFE8:
	.size	pipe, .-pipe
	.align	1
	.globl	putchar
	.type	putchar, @function
putchar:
.LFB9:
	.file 2 "child.c"
	.loc 2 6 1
	.cfi_startproc
	addi	sp,sp,-48
	.cfi_def_cfa_offset 48
	sd	ra,40(sp)
	sd	s0,32(sp)
	.cfi_offset 1, -8
	.cfi_offset 8, -16
	addi	s0,sp,48
	.cfi_def_cfa 8, 0
	mv	a5,a0
	sb	a5,-33(s0)
	.loc 2 8 12
	lbu	a5,-33(s0)
	sb	a5,-24(s0)
	.loc 2 9 12
	sb	zero,-23(s0)
	.loc 2 10 5
	addi	a5,s0,-24
	li	a2,1
	mv	a1,a5
	li	a0,1
	call	write
	.loc 2 11 1
	nop
	ld	ra,40(sp)
	.cfi_restore 1
	ld	s0,32(sp)
	.cfi_restore 8
	.cfi_def_cfa 2, 48
	addi	sp,sp,48
	.cfi_def_cfa_offset 0
	jr	ra
	.cfi_endproc
.LFE9:
	.size	putchar, .-putchar
	.align	1
	.globl	printint
	.type	printint, @function
printint:
.LFB10:
	.loc 2 13 45
	.cfi_startproc
	addi	sp,sp,-96
	.cfi_def_cfa_offset 96
	sd	ra,88(sp)
	sd	s0,80(sp)
	.cfi_offset 1, -8
	.cfi_offset 8, -16
	addi	s0,sp,96
	.cfi_def_cfa 8, 0
	mv	a5,a0
	mv	a3,a1
	mv	a4,a2
	sw	a5,-84(s0)
	mv	a5,a3
	sw	a5,-88(s0)
	mv	a5,a4
	sw	a5,-92(s0)
	.loc 2 15 9
	sw	zero,-20(s0)
	.loc 2 16 9
	sw	zero,-24(s0)
	.loc 2 19 8
	lw	a5,-92(s0)
	sext.w	a5,a5
	beq	a5,zero,.L15
	.loc 2 19 14 discriminator 1
	lw	a5,-84(s0)
	sext.w	a5,a5
	bge	a5,zero,.L15
	.loc 2 20 18
	li	a5,1
	sw	a5,-24(s0)
	.loc 2 21 16
	lw	a5,-84(s0)
	negw	a5,a5
	sext.w	a5,a5
	.loc 2 21 14
	sw	a5,-28(s0)
	j	.L16
.L15:
	.loc 2 23 14
	lw	a5,-84(s0)
	sw	a5,-28(s0)
.L16:
	.loc 2 26 8
	lw	a5,-28(s0)
	sext.w	a5,a5
	bne	a5,zero,.L19
	.loc 2 27 9
	li	a0,48
	call	putchar
	j	.L14
.L22:
.LBB2:
	.loc 2 32 26
	lw	a5,-88(s0)
	lw	a4,-28(s0)
	remuw	a5,a4,a5
	sext.w	a5,a5
	.loc 2 32 13
	sw	a5,-32(s0)
	.loc 2 33 18
	lw	a5,-32(s0)
	sext.w	a4,a5
	li	a5,9
	bgt	a4,a5,.L20
	.loc 2 33 37 discriminator 1
	lw	a5,-32(s0)
	andi	a5,a5,0xff
	.loc 2 33 18 discriminator 1
	addiw	a5,a5,48
	andi	a5,a5,0xff
	j	.L21
.L20:
	.loc 2 33 51 discriminator 2
	lw	a5,-32(s0)
	andi	a5,a5,0xff
	.loc 2 33 18 discriminator 2
	addiw	a5,a5,87
	andi	a5,a5,0xff
.L21:
	.loc 2 33 14 discriminator 4
	lw	a4,-20(s0)
	addiw	a3,a4,1
	sw	a3,-20(s0)
	.loc 2 33 18 discriminator 4
	addi	a4,a4,-16
	add	a4,a4,s0
	sb	a5,-56(a4)
	.loc 2 34 14
	lw	a5,-88(s0)
	lw	a4,-28(s0)
	divuw	a5,a4,a5
	sw	a5,-28(s0)
.L19:
.LBE2:
	.loc 2 31 17
	lw	a5,-28(s0)
	sext.w	a5,a5
	bne	a5,zero,.L22
	.loc 2 37 8
	lw	a5,-24(s0)
	sext.w	a5,a5
	beq	a5,zero,.L24
	.loc 2 38 9
	li	a0,45
	call	putchar
	.loc 2 41 11
	j	.L24
.L25:
	.loc 2 42 9
	lw	a5,-20(s0)
	addi	a5,a5,-16
	add	a5,a5,s0
	lbu	a5,-56(a5)
	mv	a0,a5
	call	putchar
.L24:
	.loc 2 41 16
	lw	a5,-20(s0)
	addiw	a5,a5,-1
	sw	a5,-20(s0)
	lw	a5,-20(s0)
	sext.w	a5,a5
	bge	a5,zero,.L25
.L14:
	.loc 2 44 1
	ld	ra,88(sp)
	.cfi_restore 1
	ld	s0,80(sp)
	.cfi_restore 8
	.cfi_def_cfa 2, 96
	addi	sp,sp,96
	.cfi_def_cfa_offset 0
	jr	ra
	.cfi_endproc
.LFE10:
	.size	printint, .-printint
	.align	1
	.globl	printlong
	.type	printlong, @function
printlong:
.LFB11:
	.loc 2 46 57
	.cfi_startproc
	addi	sp,sp,-112
	.cfi_def_cfa_offset 112
	sd	ra,104(sp)
	sd	s0,96(sp)
	.cfi_offset 1, -8
	.cfi_offset 8, -16
	addi	s0,sp,112
	.cfi_def_cfa 8, 0
	sd	a0,-104(s0)
	mv	a5,a1
	mv	a4,a2
	sw	a5,-108(s0)
	mv	a5,a4
	sw	a5,-112(s0)
	.loc 2 48 9
	sw	zero,-20(s0)
	.loc 2 49 9
	sw	zero,-24(s0)
	.loc 2 51 8
	lw	a5,-112(s0)
	sext.w	a5,a5
	beq	a5,zero,.L27
	.loc 2 51 17 discriminator 1
	ld	a5,-104(s0)
	.loc 2 51 14 discriminator 1
	bge	a5,zero,.L27
	.loc 2 52 18
	li	a5,1
	sw	a5,-24(s0)
	.loc 2 53 17
	ld	a5,-104(s0)
	.loc 2 53 16
	neg	a5,a5
	.loc 2 53 14
	sd	a5,-104(s0)
.L27:
	.loc 2 56 8
	ld	a5,-104(s0)
	bne	a5,zero,.L30
	.loc 2 57 9
	li	a0,48
	call	putchar
	j	.L26
.L33:
.LBB3:
	.loc 2 62 26
	lw	a5,-108(s0)
	ld	a4,-104(s0)
	remu	a5,a4,a5
	.loc 2 62 13
	sw	a5,-28(s0)
	.loc 2 63 18
	lw	a5,-28(s0)
	sext.w	a4,a5
	li	a5,9
	bgt	a4,a5,.L31
	.loc 2 63 37 discriminator 1
	lw	a5,-28(s0)
	andi	a5,a5,0xff
	.loc 2 63 18 discriminator 1
	addiw	a5,a5,48
	andi	a5,a5,0xff
	j	.L32
.L31:
	.loc 2 63 51 discriminator 2
	lw	a5,-28(s0)
	andi	a5,a5,0xff
	.loc 2 63 18 discriminator 2
	addiw	a5,a5,87
	andi	a5,a5,0xff
.L32:
	.loc 2 63 14 discriminator 4
	lw	a4,-20(s0)
	addiw	a3,a4,1
	sw	a3,-20(s0)
	.loc 2 63 18 discriminator 4
	addi	a4,a4,-16
	add	a4,a4,s0
	sb	a5,-80(a4)
	.loc 2 64 14
	lw	a5,-108(s0)
	ld	a4,-104(s0)
	divu	a5,a4,a5
	sd	a5,-104(s0)
.L30:
.LBE3:
	.loc 2 61 17
	ld	a5,-104(s0)
	bne	a5,zero,.L33
	.loc 2 67 8
	lw	a5,-24(s0)
	sext.w	a5,a5
	beq	a5,zero,.L35
	.loc 2 68 9
	li	a0,45
	call	putchar
	.loc 2 71 11
	j	.L35
.L36:
	.loc 2 72 9
	lw	a5,-20(s0)
	addi	a5,a5,-16
	add	a5,a5,s0
	lbu	a5,-80(a5)
	mv	a0,a5
	call	putchar
.L35:
	.loc 2 71 16
	lw	a5,-20(s0)
	addiw	a5,a5,-1
	sw	a5,-20(s0)
	lw	a5,-20(s0)
	sext.w	a5,a5
	bge	a5,zero,.L36
.L26:
	.loc 2 74 1
	ld	ra,104(sp)
	.cfi_restore 1
	ld	s0,96(sp)
	.cfi_restore 8
	.cfi_def_cfa 2, 112
	addi	sp,sp,112
	.cfi_def_cfa_offset 0
	jr	ra
	.cfi_endproc
.LFE11:
	.size	printlong, .-printlong
	.align	1
	.globl	printlonglong
	.type	printlonglong, @function
printlonglong:
.LFB12:
	.loc 2 76 66
	.cfi_startproc
	addi	sp,sp,-112
	.cfi_def_cfa_offset 112
	sd	ra,104(sp)
	sd	s0,96(sp)
	.cfi_offset 1, -8
	.cfi_offset 8, -16
	addi	s0,sp,112
	.cfi_def_cfa 8, 0
	sd	a0,-104(s0)
	mv	a5,a1
	mv	a4,a2
	sw	a5,-108(s0)
	mv	a5,a4
	sw	a5,-112(s0)
	.loc 2 78 9
	sw	zero,-20(s0)
	.loc 2 79 9
	sw	zero,-24(s0)
	.loc 2 81 8
	lw	a5,-112(s0)
	sext.w	a5,a5
	beq	a5,zero,.L38
	.loc 2 81 17 discriminator 1
	ld	a5,-104(s0)
	.loc 2 81 14 discriminator 1
	bge	a5,zero,.L38
	.loc 2 82 18
	li	a5,1
	sw	a5,-24(s0)
	.loc 2 83 17
	ld	a5,-104(s0)
	.loc 2 83 16
	neg	a5,a5
	.loc 2 83 14
	sd	a5,-104(s0)
.L38:
	.loc 2 86 8
	ld	a5,-104(s0)
	bne	a5,zero,.L41
	.loc 2 87 9
	li	a0,48
	call	putchar
	j	.L37
.L44:
.LBB4:
	.loc 2 92 26
	lw	a5,-108(s0)
	ld	a4,-104(s0)
	remu	a5,a4,a5
	.loc 2 92 13
	sw	a5,-28(s0)
	.loc 2 93 18
	lw	a5,-28(s0)
	sext.w	a4,a5
	li	a5,9
	bgt	a4,a5,.L42
	.loc 2 93 37 discriminator 1
	lw	a5,-28(s0)
	andi	a5,a5,0xff
	.loc 2 93 18 discriminator 1
	addiw	a5,a5,48
	andi	a5,a5,0xff
	j	.L43
.L42:
	.loc 2 93 51 discriminator 2
	lw	a5,-28(s0)
	andi	a5,a5,0xff
	.loc 2 93 18 discriminator 2
	addiw	a5,a5,87
	andi	a5,a5,0xff
.L43:
	.loc 2 93 14 discriminator 4
	lw	a4,-20(s0)
	addiw	a3,a4,1
	sw	a3,-20(s0)
	.loc 2 93 18 discriminator 4
	addi	a4,a4,-16
	add	a4,a4,s0
	sb	a5,-80(a4)
	.loc 2 94 14
	lw	a5,-108(s0)
	ld	a4,-104(s0)
	divu	a5,a4,a5
	sd	a5,-104(s0)
.L41:
.LBE4:
	.loc 2 91 17
	ld	a5,-104(s0)
	bne	a5,zero,.L44
	.loc 2 97 8
	lw	a5,-24(s0)
	sext.w	a5,a5
	beq	a5,zero,.L46
	.loc 2 98 9
	li	a0,45
	call	putchar
	.loc 2 101 11
	j	.L46
.L47:
	.loc 2 102 9
	lw	a5,-20(s0)
	addi	a5,a5,-16
	add	a5,a5,s0
	lbu	a5,-80(a5)
	mv	a0,a5
	call	putchar
.L46:
	.loc 2 101 16
	lw	a5,-20(s0)
	addiw	a5,a5,-1
	sw	a5,-20(s0)
	lw	a5,-20(s0)
	sext.w	a5,a5
	bge	a5,zero,.L47
.L37:
	.loc 2 104 1
	ld	ra,104(sp)
	.cfi_restore 1
	ld	s0,96(sp)
	.cfi_restore 8
	.cfi_def_cfa 2, 112
	addi	sp,sp,112
	.cfi_def_cfa_offset 0
	jr	ra
	.cfi_endproc
.LFE12:
	.size	printlonglong, .-printlonglong
	.section	.rodata
	.align	3
.LC0:
	.string	"(null)"
	.text
	.align	1
	.globl	printf
	.type	printf, @function
printf:
.LFB13:
	.loc 2 106 34
	.cfi_startproc
	addi	sp,sp,-192
	.cfi_def_cfa_offset 192
	sd	ra,120(sp)
	sd	s0,112(sp)
	.cfi_offset 1, -72
	.cfi_offset 8, -80
	addi	s0,sp,128
	.cfi_def_cfa 8, 64
	sd	a0,-120(s0)
	sd	a1,8(s0)
	sd	a2,16(s0)
	sd	a3,24(s0)
	sd	a4,32(s0)
	sd	a5,40(s0)
	sd	a6,48(s0)
	sd	a7,56(s0)
	.loc 2 108 5
	addi	a5,s0,64
	sd	a5,-128(s0)
	ld	a5,-128(s0)
	addi	a5,a5,-56
	sd	a5,-104(s0)
	.loc 2 111 12
	ld	a5,-120(s0)
	sd	a5,-24(s0)
	.loc 2 111 5
	j	.L49
.L74:
	.loc 2 112 13
	ld	a5,-24(s0)
	lbu	a5,0(a5)
	.loc 2 112 12
	mv	a4,a5
	li	a5,37
	beq	a4,a5,.L50
	.loc 2 113 13
	ld	a5,-24(s0)
	lbu	a5,0(a5)
	mv	a0,a5
	call	putchar
	.loc 2 114 13
	j	.L51
.L50:
	.loc 2 117 10
	ld	a5,-24(s0)
	addi	a5,a5,1
	sd	a5,-24(s0)
	.loc 2 119 13
	ld	a5,-24(s0)
	lbu	a5,0(a5)
	.loc 2 119 12
	mv	a4,a5
	li	a5,108
	bne	a4,a5,.L52
.LBB5:
	.loc 2 120 17
	li	a5,1
	sw	a5,-28(s0)
	.loc 2 121 20
	ld	a5,-24(s0)
	addi	a5,a5,1
	.loc 2 121 17
	lbu	a5,0(a5)
	.loc 2 121 16
	mv	a4,a5
	li	a5,108
	bne	a4,a5,.L53
	.loc 2 122 24
	li	a5,2
	sw	a5,-28(s0)
	.loc 2 123 18
	ld	a5,-24(s0)
	addi	a5,a5,1
	sd	a5,-24(s0)
.L53:
	.loc 2 125 14
	ld	a5,-24(s0)
	addi	a5,a5,1
	sd	a5,-24(s0)
	.loc 2 127 21
	ld	a5,-24(s0)
	lbu	a5,0(a5)
	sext.w	a5,a5
	.loc 2 127 13
	li	a4,100
	beq	a5,a4,.L54
	li	a4,120
	bne	a5,a4,.L55
	.loc 2 129 24
	lw	a5,-28(s0)
	sext.w	a4,a5
	li	a5,1
	bne	a4,a5,.L56
.LBB6:
	.loc 2 130 39
	ld	a5,-104(s0)
	addi	a4,a5,8
	sd	a4,-104(s0)
	ld	a5,0(a5)
	sd	a5,-80(s0)
	.loc 2 131 25
	li	a2,0
	li	a1,16
	ld	a0,-80(s0)
	call	printlong
.LBE6:
	.loc 2 136 21
	j	.L51
.L56:
.LBB7:
	.loc 2 133 44
	ld	a5,-104(s0)
	addi	a4,a5,8
	sd	a4,-104(s0)
	ld	a5,0(a5)
	sd	a5,-72(s0)
	.loc 2 134 25
	li	a2,0
	li	a1,16
	ld	a0,-72(s0)
	call	printlonglong
.LBE7:
	.loc 2 136 21
	j	.L51
.L54:
	.loc 2 139 24
	lw	a5,-28(s0)
	sext.w	a4,a5
	li	a5,1
	bne	a4,a5,.L59
.LBB8:
	.loc 2 140 30
	ld	a5,-104(s0)
	addi	a4,a5,8
	sd	a4,-104(s0)
	ld	a5,0(a5)
	sd	a5,-96(s0)
	.loc 2 141 25
	ld	a5,-96(s0)
	li	a2,1
	li	a1,10
	mv	a0,a5
	call	printlong
.LBE8:
	.loc 2 146 21
	j	.L51
.L59:
.LBB9:
	.loc 2 143 35
	ld	a5,-104(s0)
	addi	a4,a5,8
	sd	a4,-104(s0)
	ld	a5,0(a5)
	sd	a5,-88(s0)
	.loc 2 144 25
	ld	a5,-88(s0)
	li	a2,1
	li	a1,10
	mv	a0,a5
	call	printlonglong
.LBE9:
	.loc 2 146 21
	j	.L51
.L55:
	.loc 2 149 21
	li	a0,37
	call	putchar
.LBB10:
	.loc 2 150 30
	sw	zero,-32(s0)
	.loc 2 150 21
	j	.L61
.L62:
	.loc 2 150 50 discriminator 3
	li	a0,108
	call	putchar
	.loc 2 150 46 discriminator 3
	lw	a5,-32(s0)
	addiw	a5,a5,1
	sw	a5,-32(s0)
.L61:
	.loc 2 150 36 discriminator 2
	lw	a5,-32(s0)
	mv	a4,a5
	lw	a5,-28(s0)
	sext.w	a4,a4
	sext.w	a5,a5
	blt	a4,a5,.L62
.LBE10:
	.loc 2 151 21
	ld	a5,-24(s0)
	lbu	a5,0(a5)
	mv	a0,a5
	call	putchar
	.loc 2 152 21
	j	.L51
.L52:
.LBE5:
	.loc 2 156 21
	ld	a5,-24(s0)
	lbu	a5,0(a5)
	sext.w	a5,a5
	.loc 2 156 13
	li	a4,37
	beq	a5,a4,.L63
	li	a4,37
	blt	a5,a4,.L64
	li	a4,120
	bgt	a5,a4,.L64
	li	a4,99
	blt	a5,a4,.L64
	addiw	a5,a5,-99
	mv	a3,a5
	sext.w	a4,a3
	li	a5,21
	bgtu	a4,a5,.L64
	slli	a5,a3,32
	srli	a5,a5,32
	slli	a4,a5,2
	lla	a5,.L66
	add	a5,a4,a5
	lw	a5,0(a5)
	sext.w	a4,a5
	lla	a5,.L66
	add	a5,a4,a5
	jr	a5
	.section	.rodata
	.align	2
	.align	2
.L66:
	.word	.L70-.L66
	.word	.L69-.L66
	.word	.L64-.L66
	.word	.L64-.L66
	.word	.L64-.L66
	.word	.L64-.L66
	.word	.L64-.L66
	.word	.L64-.L66
	.word	.L64-.L66
	.word	.L64-.L66
	.word	.L64-.L66
	.word	.L64-.L66
	.word	.L64-.L66
	.word	.L68-.L66
	.word	.L64-.L66
	.word	.L64-.L66
	.word	.L67-.L66
	.word	.L64-.L66
	.word	.L64-.L66
	.word	.L64-.L66
	.word	.L64-.L66
	.word	.L65-.L66
	.text
.L69:
.LBB11:
	.loc 2 158 25
	ld	a5,-104(s0)
	addi	a4,a5,8
	sd	a4,-104(s0)
	lw	a5,0(a5)
	sw	a5,-60(s0)
	.loc 2 159 21
	lw	a5,-60(s0)
	li	a2,1
	li	a1,10
	mv	a0,a5
	call	printint
	.loc 2 160 21
	j	.L51
.L65:
.LBE11:
.LBB12:
	.loc 2 163 34
	ld	a5,-104(s0)
	addi	a4,a5,8
	sd	a4,-104(s0)
	lw	a5,0(a5)
	sw	a5,-44(s0)
	.loc 2 164 21
	lw	a5,-44(s0)
	li	a2,0
	li	a1,16
	mv	a0,a5
	call	printint
	.loc 2 165 21
	j	.L51
.L68:
.LBE12:
.LBB13:
	.loc 2 168 57
	ld	a5,-104(s0)
	addi	a4,a5,8
	sd	a4,-104(s0)
	ld	a5,0(a5)
	.loc 2 168 35 discriminator 1
	sd	a5,-56(s0)
	.loc 2 169 21
	li	a0,48
	call	putchar
	.loc 2 169 35 discriminator 1
	li	a0,120
	call	putchar
	.loc 2 170 21
	li	a2,0
	li	a1,16
	ld	a0,-56(s0)
	call	printlong
	.loc 2 171 21
	j	.L51
.L67:
.LBE13:
.LBB14:
	.loc 2 174 33
	ld	a5,-104(s0)
	addi	a4,a5,8
	sd	a4,-104(s0)
	ld	a5,0(a5)
	sd	a5,-40(s0)
	.loc 2 175 24
	ld	a5,-40(s0)
	bne	a5,zero,.L72
	.loc 2 175 31 discriminator 1
	lla	a5,.LC0
	sd	a5,-40(s0)
	.loc 2 176 27
	j	.L72
.L73:
	.loc 2 176 42 discriminator 2
	ld	a5,-40(s0)
	addi	a4,a5,1
	sd	a4,-40(s0)
	.loc 2 176 32 discriminator 2
	lbu	a5,0(a5)
	mv	a0,a5
	call	putchar
.L72:
	.loc 2 176 28 discriminator 1
	ld	a5,-40(s0)
	lbu	a5,0(a5)
	bne	a5,zero,.L73
	.loc 2 177 21
	j	.L51
.L70:
.LBE14:
.LBB15:
	.loc 2 180 36
	ld	a5,-104(s0)
	addi	a4,a5,8
	sd	a4,-104(s0)
	lw	a5,0(a5)
	.loc 2 180 26 discriminator 1
	sb	a5,-61(s0)
	.loc 2 181 21
	lbu	a5,-61(s0)
	mv	a0,a5
	call	putchar
	.loc 2 182 21
	j	.L51
.L63:
.LBE15:
	.loc 2 185 21
	li	a0,37
	call	putchar
	.loc 2 186 21
	j	.L51
.L64:
	.loc 2 189 21
	li	a0,37
	call	putchar
	.loc 2 190 21
	ld	a5,-24(s0)
	lbu	a5,0(a5)
	mv	a0,a5
	call	putchar
	.loc 2 191 21
	nop
.L51:
	.loc 2 111 24 discriminator 2
	ld	a5,-24(s0)
	addi	a5,a5,1
	sd	a5,-24(s0)
.L49:
	.loc 2 111 19 discriminator 1
	ld	a5,-24(s0)
	lbu	a5,0(a5)
	bne	a5,zero,.L74
	.loc 2 198 12
	li	a5,0
	.loc 2 199 1
	mv	a0,a5
	ld	ra,120(sp)
	.cfi_restore 1
	ld	s0,112(sp)
	.cfi_restore 8
	.cfi_def_cfa 2, 192
	addi	sp,sp,192
	.cfi_def_cfa_offset 0
	jr	ra
	.cfi_endproc
.LFE13:
	.size	printf, .-printf
	.align	1
	.globl	puts
	.type	puts, @function
puts:
.LFB14:
	.loc 2 203 26
	.cfi_startproc
	addi	sp,sp,-32
	.cfi_def_cfa_offset 32
	sd	ra,24(sp)
	sd	s0,16(sp)
	.cfi_offset 1, -8
	.cfi_offset 8, -16
	addi	s0,sp,32
	.cfi_def_cfa 8, 0
	sd	a0,-24(s0)
	.loc 2 204 11
	j	.L77
.L78:
	.loc 2 205 19
	ld	a5,-24(s0)
	addi	a4,a5,1
	sd	a4,-24(s0)
	.loc 2 205 9
	lbu	a5,0(a5)
	mv	a0,a5
	call	putchar
.L77:
	.loc 2 204 12
	ld	a5,-24(s0)
	lbu	a5,0(a5)
	bne	a5,zero,.L78
	.loc 2 207 1
	nop
	nop
	ld	ra,24(sp)
	.cfi_restore 1
	ld	s0,16(sp)
	.cfi_restore 8
	.cfi_def_cfa 2, 32
	addi	sp,sp,32
	.cfi_def_cfa_offset 0
	jr	ra
	.cfi_endproc
.LFE14:
	.size	puts, .-puts
	.section	.rodata
	.align	3
.LC1:
	.string	"/hello.elf"
	.align	3
.LC2:
	.string	"END"
	.text
	.align	1
	.globl	main
	.type	main, @function
main:
.LFB15:
	.loc 2 263 16
	.cfi_startproc
	addi	sp,sp,-48
	.cfi_def_cfa_offset 48
	sd	ra,40(sp)
	sd	s0,32(sp)
	.cfi_offset 1, -8
	.cfi_offset 8, -16
	addi	s0,sp,48
	.cfi_def_cfa 8, 0
	.loc 2 269 5
	addi	a5,s0,-32
	mv	a0,a5
	call	pipe
.LBB16:
	.loc 2 271 12
	li	a7,68
 #APP
# 271 "child.c" 1
	ecall
# 0 "" 2
 #NO_APP
	mv	a5,a0
.LBE16:
	.loc 2 271 10
	sw	a5,-20(s0)
	.loc 2 272 8
	lw	a5,-20(s0)
	sext.w	a5,a5
	bne	a5,zero,.L80
	.loc 2 274 9
	lw	a5,-28(s0)
	li	a1,1
	mv	a0,a5
	call	dup2
	.loc 2 278 9
	li	a2,0
	li	a1,0
	lla	a0,.LC1
	call	execv
	.loc 2 279 9
	li	a0,6
	call	exit
.L80:
	.loc 2 281 12
	sw	zero,-44(s0)
	.loc 2 282 5
	addi	a5,s0,-44
	mv	a0,a5
	call	wait
.LBB17:
	.loc 2 285 12
	li	a7,68
 #APP
# 285 "child.c" 1
	ecall
# 0 "" 2
 #NO_APP
	mv	a5,a0
.LBE17:
	.loc 2 285 10
	sw	a5,-24(s0)
	.loc 2 286 8
	lw	a5,-24(s0)
	sext.w	a5,a5
	bne	a5,zero,.L81
	.loc 2 287 1
	li	a0,89
	call	putchar
	.loc 2 288 1
	lw	a5,-24(s0)
	andi	a5,a5,0xff
	addiw	a5,a5,48
	andi	a5,a5,0xff
	mv	a0,a5
	call	putchar
	.loc 2 289 1
	li	a0,89
	call	putchar
	.loc 2 290 1
	li	a0,88
	call	putchar
	.loc 2 291 17
	lw	a5,-32(s0)
	.loc 2 291 9
	andi	a5,a5,0xff
	.loc 2 291 1
	addiw	a5,a5,48
	andi	a5,a5,0xff
	mv	a0,a5
	call	putchar
	.loc 2 292 1
	li	a0,88
	call	putchar
	.loc 2 294 9
	lw	a5,-32(s0)
	li	a1,0
	mv	a0,a5
	call	dup2
	.loc 2 298 9
	li	a0,6
	call	exit
.L81:
	.loc 2 301 12
	sw	zero,-44(s0)
	.loc 2 302 5
	addi	a5,s0,-44
	mv	a0,a5
	call	wait
	.loc 2 303 1
	li	a0,89
	call	putchar
	.loc 2 304 1
	lw	a5,-24(s0)
	andi	a5,a5,0xff
	addiw	a5,a5,48
	andi	a5,a5,0xff
	mv	a0,a5
	call	putchar
	.loc 2 305 1
	li	a0,89
	call	putchar
	.loc 2 306 1
	li	a0,88
	call	putchar
	.loc 2 307 17
	lw	a5,-32(s0)
	.loc 2 307 9
	andi	a5,a5,0xff
	.loc 2 307 1
	addiw	a5,a5,48
	andi	a5,a5,0xff
	mv	a0,a5
	call	putchar
	.loc 2 308 1
	li	a0,88
	call	putchar
	.loc 2 313 1
	lla	a0,.LC2
	call	puts
.L82:
	.loc 2 314 10
	j	.L82
	.cfi_endproc
.LFE15:
	.size	main, .-main
.Letext0:
	.file 3 "/opt/homebrew/Cellar/riscv-gnu-toolchain/main/lib/gcc/riscv64-unknown-elf/14.2.0/include/stdarg.h"
	.section	.note.GNU-stack,"",@progbits
