
There are no discarded input sections

Memory Configuration

Name             Origin             Length             Attributes
*default*        0x0000000000000000 0xffffffffffffffff

Linker script and memory map

LOAD entry.o
LOAD start.o
LOAD userret.o
LOAD trap.o
LOAD fs2.o
LOAD plic.o
LOAD trap_c.o
LOAD main.o
                0x0000000080000000                . = 0x80000000

.text           0x0000000080000000     0x5572
 *(.text*)
 .text          0x0000000080000000       0x3e entry.o
                0x0000000080000000                entry
 .text          0x000000008000003e      0x2fc start.o
                0x000000008000023c                start
 .text          0x000000008000033a        0x0 userret.o
 .text          0x000000008000033a        0x0 trap.o
 .text          0x000000008000033a     0x121c fs2.o
                0x000000008000039a                virtio_blk_init
                0x0000000080000c00                read_block
                0x0000000080000c2a                read_superblock
                0x0000000080000c60                read_inode
                0x0000000080000e68                read_data
                0x0000000080000f82                dir_lookup
                0x000000008000106e                path_lookup
                0x00000000800011ee                dump_inode
                0x00000000800012e0                fs_open
                0x00000000800013fe                fs_read
                0x00000000800014e2                fs_close
 .text          0x0000000080001556      0x1fc plic.o
                0x0000000080001556                plic_init
                0x00000000800015aa                plic_enable
                0x00000000800015ea                plic_claim
                0x0000000080001606                plic_complete
                0x0000000080001654                uart_getc
                0x0000000080001680                uart_readn
                0x00000000800016d2                uart_readline
 .text          0x0000000080001752       0x66 trap_c.o
                0x0000000080001752                trap_init
                0x0000000080001778                external_interrupt_handler
 .text          0x00000000800017b8     0x3dba main.o
                0x0000000080001834                kalloc_pages
                0x0000000080001894                perror
                0x00000000800018b2                panic
                0x00000000800018dc                mycpu
                0x00000000800019aa                initlock
                0x00000000800019de                acquire
                0x0000000080001a32                release
                0x0000000080001a7c                holding
                0x0000000080001abc                push_off
                0x0000000080001b08                pop_off
                0x0000000080001b7c                kinit
                0x0000000080001bb6                freerange
                0x0000000080001c0a                kfree
                0x0000000080001ca2                kalloc
                0x0000000080001d06                walk
                0x0000000080001dd4                mappages
                0x0000000080001ee4                dump_physical_memory
                0x0000000080001fae                vmprint_rec
                0x0000000080002140                vmprint
                0x000000008000216e                enable_mmu
                0x00000000800021a2                uart_rx_handler
                0x00000000800021cc                uart_init
                0x0000000080002212                putc
                0x0000000080002250                putchar
                0x0000000080002272                mmu_init
                0x000000008000241e                walkaddr
                0x000000008000248e                copyout
                0x000000008000255c                copyin
                0x0000000080002624                copyinstr
                0x0000000080002752                setting_user_pagetable
                0x0000000080002810                alloc_prog
                0x0000000080002b44                uvmcreate
                0x0000000080002b78                copyuvm
                0x0000000080002d1a                free_proc
                0x0000000080002d4e                exec_prog
                0x0000000080002fe8                my_intr_off
                0x0000000080003018                my_intr_on
                0x000000008000304a                enable_timer_interrupts
                0x0000000080003094                disable_timer_interrupts
                0x00000000800030c4                timer_reset
                0x00000000800030f0                timer_handler
                0x0000000080003220                console_init
                0x0000000080003246                puts
                0x0000000080003296                Sys_write
                0x00000000800033ae                Sys_open
                0x0000000080003470                Sys_fork
                0x0000000080003598                Sys_execv
                0x00000000800036f0                syscall_handler
                0x00000000800038e4                timerinit
                0x000000008000393c                sbrk
                0x00000000800039be                malloc
                0x0000000080003a96                calloc
                0x0000000080003af2                free
                0x0000000080003b38                strcmp
                0x0000000080003ba2                strdup
                0x0000000080003bf2                strstr
                0x0000000080003c90                memset
                0x0000000080003cf4                memcmp
                0x0000000080003d7c                memmove
                0x0000000080003e5c                memcpy
                0x0000000080003e90                strncmp
                0x0000000080003f1e                strncpy
                0x0000000080003fa4                strlen
                0x0000000080003fde                strncat
                0x0000000080004060                strtok
                0x00000000800041c4                itoa
                0x0000000080004306                vasprintf
                0x00000000800045b2                snprintf
                0x00000000800049e2                vsnprintf
                0x0000000080004e12                printint
                0x0000000080004f28                printlong
                0x0000000080005026                printlonglong
                0x0000000080005124                printf
                0x000000008000544c                main

.rodata         0x0000000080005578      0x47c
 *(.rodata*)
 .rodata        0x0000000080005578       0xfa fs2.o
 *fill*         0x0000000080005672        0x6 
 .rodata        0x0000000080005678      0x37c main.o

.data           0x00000000800059f8     0x2008
 *(.data*)
 .data          0x00000000800059f8        0x0 entry.o
 .data          0x00000000800059f8        0x0 start.o
 .data          0x00000000800059f8        0x0 userret.o
 .data          0x00000000800059f8        0x0 trap.o
 .data          0x00000000800059f8        0x0 fs2.o
 .data          0x00000000800059f8        0x0 plic.o
 .data          0x00000000800059f8        0x0 trap_c.o
 .data          0x00000000800059f8     0x2008 main.o
                0x00000000800059f8                hello_elf
                0x00000000800062a0                hello2_elf
                0x0000000080006a60                shell_elf

.sdata          0x0000000080007a00       0x18
 *(.sdata*)
 .sdata         0x0000000080007a00       0x18 main.o
                0x0000000080007a00                hello_elf_len
                0x0000000080007a04                hello2_elf_len
                0x0000000080007a08                shell_elf_len

.bss            0x0000000080007c00     0x10a8
 *(.bss)
 .bss           0x0000000080007c00        0x0 entry.o
 .bss           0x0000000080007c00        0x0 start.o
 .bss           0x0000000080007c00        0x0 userret.o
 .bss           0x0000000080007c00        0x0 trap.o
 .bss           0x0000000080007c00      0xb30 fs2.o
 .bss           0x0000000080008730        0x0 plic.o
 .bss           0x0000000080008730        0x0 trap_c.o
 .bss           0x0000000080008730      0x558 main.o
                0x0000000080008730                gCPU
                0x0000000080008840                gProc
                0x0000000080008c40                kmem
 *(.bss.*)
 *(.sbss)
 .sbss          0x0000000080008c88       0x20 main.o
                0x0000000080008c88                kernel_pagetable
                0x0000000080008c90                gActiveProc
                0x0000000080008c94                gNumProc
                0x0000000080008c98                last_key
                0x0000000080008ca0                free_list
 *(.sbss.*)
                [!provide]                        PROVIDE (_code_end = .)
                0x000000008006cca8                . = (. + 0x64000)
                0x000000008006cca8                PROVIDE (stack_top = .)
                0x000000008006d000                . = ALIGN (0x1000)
                0x000000008006d000                TRAPFRAME = .
                0x000000008006e000                . = (. + 0x1000)
                0x000000008006e000                . = ALIGN (0x1000)
                0x000000008006e000                TRAPFRAME2 = .
                0x000000008006f000                . = (. + 0x1000)
                0x000000008006f000                . = ALIGN (0x1000)
                0x0000000080020000                . = 0x80020000
                0x0000000080020000                PROVIDE (TRAMPOLINE = .)

.trampoline     0x0000000080020000      0x304
 *(.trampoline)
 .trampoline    0x0000000080020000      0x304 trap.o
                0x0000000080020000                trapvec
                0x00000000800201fc                swtch
                0x00000000800202be                enter_user
                0x00000000800202e8                mtvec

.rela.dyn       0x0000000080020308        0x0
 .rela.text     0x0000000080020308        0x0 entry.o
 .rela.trampoline
                0x0000000080020308        0x0 entry.o
                0x0000000080021000                . = ALIGN (0x1000)
                0x0000000080021000                PROVIDE (COMMON = .)

.common         0x0000000080021000       0x20
 *(.common)
 .common        0x0000000080021000       0x20 main.o
                0x0000000080021000                kernel_sp
                0x0000000080021008                user_sp
                0x0000000080021010                kernel_satp
                0x0000000080021018                user_satp
                0x0000000080022020                . = (. + 0x1000)
                0x0000000080023000                . = ALIGN (0x1000)
                0x0000000080023000                PROVIDE (_end = .)
                0x0000000080087000                . = (. + 0x64000)
                0x0000000080087000                PROVIDE (_end2 = .)
                0x000000008008f000                . = (. + 0x8000)
                0x000000008008f000                PROVIDE (_end3 = .)

.riscv.attributes
                0x0000000000000000       0x6a
 .riscv.attributes
                0x0000000000000000       0x64 entry.o
 .riscv.attributes
                0x0000000000000064       0x6a start.o
 .riscv.attributes
                0x00000000000000ce       0x64 userret.o
 .riscv.attributes
                0x0000000000000132       0x68 trap.o
 .riscv.attributes
                0x000000000000019a       0x66 fs2.o
 .riscv.attributes
                0x0000000000000200       0x66 plic.o
 .riscv.attributes
                0x0000000000000266       0x6a trap_c.o
 .riscv.attributes
                0x00000000000002d0       0x6a main.o

.comment        0x0000000000000000       0x19
 .comment       0x0000000000000000       0x19 start.o
                                         0x1a (size before relaxing)
 .comment       0x0000000000000019       0x1a fs2.o
 .comment       0x0000000000000019       0x1a plic.o
 .comment       0x0000000000000019       0x1a trap_c.o
 .comment       0x0000000000000019       0x1a main.o

.note.GNU-stack
                0x0000000000000000        0x0
 .note.GNU-stack
                0x0000000000000000        0x0 start.o
 .note.GNU-stack
                0x0000000000000000        0x0 fs2.o
 .note.GNU-stack
                0x0000000000000000        0x0 plic.o
 .note.GNU-stack
                0x0000000000000000        0x0 trap_c.o
 .note.GNU-stack
                0x0000000000000000        0x0 main.o

.debug_info     0x0000000000000000     0x410f
 *(.debug_info)
 .debug_info    0x0000000000000000       0x2e entry.o
 .debug_info    0x000000000000002e      0x3b1 start.o
 .debug_info    0x00000000000003df       0x2e trap.o
 .debug_info    0x000000000000040d      0xd24 fs2.o
 .debug_info    0x0000000000001131      0x232 plic.o
 .debug_info    0x0000000000001363      0x101 trap_c.o
 .debug_info    0x0000000000001464     0x2cab main.o

.debug_abbrev   0x0000000000000000      0xba7
 *(.debug_abbrev)
 .debug_abbrev  0x0000000000000000       0x14 entry.o
 .debug_abbrev  0x0000000000000014      0x149 start.o
 .debug_abbrev  0x000000000000015d       0x14 trap.o
 .debug_abbrev  0x0000000000000171      0x31b fs2.o
 .debug_abbrev  0x000000000000048c      0x123 plic.o
 .debug_abbrev  0x00000000000005af       0xd6 trap_c.o
 .debug_abbrev  0x0000000000000685      0x522 main.o

.debug_line     0x0000000000000000     0x4f6b
 *(.debug_line)
 .debug_line    0x0000000000000000       0x43 entry.o
 .debug_line    0x0000000000000043      0x2e3 start.o
 .debug_line    0x0000000000000326      0x4b8 trap.o
 .debug_line    0x00000000000007de      0xbd0 fs2.o
 .debug_line    0x00000000000013ae      0x24d plic.o
 .debug_line    0x00000000000015fb       0xa5 trap_c.o
 .debug_line    0x00000000000016a0     0x38cb main.o

.debug_str      0x0000000000000000      0xc7e
 *(.debug_str)
 .debug_str     0x0000000000000000      0xc7e entry.o
                                         0x2f (size before relaxing)
 .debug_str     0x0000000000000c7e      0x1af start.o
 .debug_str     0x0000000000000c7e       0x2e trap.o
 .debug_str     0x0000000000000c7e      0x49e fs2.o
 .debug_str     0x0000000000000c7e      0x169 plic.o
 .debug_str     0x0000000000000c7e      0x14b trap_c.o
 .debug_str     0x0000000000000c7e      0x951 main.o

.debug_line_str
                0x0000000000000000       0xdf
 *(.debug_line_str)
 .debug_line_str
                0x0000000000000000       0xdf start.o
                                         0xb0 (size before relaxing)
 .debug_line_str
                0x00000000000000df       0xb9 fs2.o
 .debug_line_str
                0x00000000000000df       0xad plic.o
 .debug_line_str
                0x00000000000000df       0xad trap_c.o
 .debug_line_str
                0x00000000000000df       0xea main.o
OUTPUT(kernel.elf elf64-littleriscv)

.debug_aranges  0x0000000000000000      0x150
 .debug_aranges
                0x0000000000000000       0x30 entry.o
 .debug_aranges
                0x0000000000000030       0x30 start.o
 .debug_aranges
                0x0000000000000060       0x30 trap.o
 .debug_aranges
                0x0000000000000090       0x30 fs2.o
 .debug_aranges
                0x00000000000000c0       0x30 plic.o
 .debug_aranges
                0x00000000000000f0       0x30 trap_c.o
 .debug_aranges
                0x0000000000000120       0x30 main.o

.debug_frame    0x0000000000000000     0x1960
 .debug_frame   0x0000000000000000      0x370 start.o
 .debug_frame   0x0000000000000370      0x338 fs2.o
 .debug_frame   0x00000000000006a8      0x198 plic.o
 .debug_frame   0x0000000000000840       0x70 trap_c.o
 .debug_frame   0x00000000000008b0     0x10b0 main.o

.debug_rnglists
                0x0000000000000000       0x22
 .debug_rnglists
                0x0000000000000000       0x22 main.o
