
There are no discarded input sections

Memory Configuration

Name             Origin             Length             Attributes
*default*        0x0000000000000000 0xffffffffffffffff

Linker script and memory map

LOAD entry.o
LOAD start.o
LOAD userret.o
LOAD trap.o
LOAD fs.o
LOAD plic.o
LOAD trap_c.o
LOAD main.o
LOAD libc.o
LOAD syscall.o
LOAD kernel_proc_list_neoc.o
LOAD kernel_neoc_runtime.o
                0x0000000000000040                STACK_PAGES = 0x40
                0x0000000000040000                STACK_MAX = (0x1000 * STACK_PAGES)
                0x0000000080000000                . = 0x80000000

.text           0x0000000080000000    0x12ad6
 *(.text*)
 .text          0x0000000080000000       0x3e entry.o
                0x0000000080000000                entry
 .text          0x000000008000003e      0x2fc start.o
                0x000000008000023c                start
 .text          0x000000008000033a        0x0 userret.o
 .text          0x000000008000033a        0x0 trap.o
 .text          0x000000008000033a     0x671c fs.o
                0x000000008000039a                virtio_blk_init
                0x0000000080000c8a                bcache_init
                0x0000000080000d3a                bcache_stats
                0x00000000800011de                read_block
                0x0000000080001628                write_block
                0x0000000080001808                read_superblock
                0x000000008000183e                read_inode
                0x00000000800022c0                read_data
                0x00000000800023da                dir_lookup
                0x00000000800024c6                path_lookup
                0x00000000800028d0                fs_realpath
                0x0000000080002d9a                dump_inode
                0x0000000080003028                file_system_init
                0x0000000080003112                alloc_pipe
                0x000000008000315c                free_pipe
                0x0000000080003192                alloc_file
                0x00000000800031ea                free_file
                0x000000008000321e                pipealloc
                0x0000000080003298                new_file_table
                0x00000000800032f0                fs_init
                0x0000000080003388                is_pipe
                0x000000008000341c                is_stdin
                0x0000000080003476                is_stdout
                0x00000000800034d4                is_tty
                0x0000000080003570                pipe_open
                0x0000000080003842                piperead
                0x00000000800039f4                pipewrite
                0x000000008000475a                fs_mkdir
                0x00000000800049be                fs_rmdir
                0x0000000080004ba2                fs_unlink
                0x0000000080004eaa                fs_symlink
                0x00000000800050b6                fs_rename
                0x00000000800052f2                fs_link
                0x000000008000546e                fs_stat
                0x000000008000553e                fs_readlink
                0x0000000080005686                fs_lstat
                0x00000000800057c6                fs_chmod
                0x000000008000588c                fs_chown
                0x000000008000593c                fs_utimes
                0x00000000800059fa                fs_open
                0x0000000080005a1e                fs_open2
                0x0000000080006108                fs_read
                0x0000000080006206                fs_write
                0x0000000080006452                fs_size
                0x00000000800064d4                fs_close
                0x00000000800066a2                fs_exit
                0x00000000800066e4                fs_dup_table
                0x000000008000677c                free_fs_table
                0x0000000080006792                fs_dup2
                0x0000000080006868                fs_fstat_fd
                0x0000000080006962                fs_lseek
 .text          0x0000000080006a56      0x200 plic.o
                0x0000000080006a56                plic_init
                0x0000000080006aaa                plic_enable
                0x0000000080006aea                plic_claim
                0x0000000080006b06                plic_complete
                0x0000000080006b54                uart_getc
                0x0000000080006b84                uart_readn
                0x0000000080006bd6                uart_readline
 .text          0x0000000080006c56       0x66 trap_c.o
                0x0000000080006c56                trap_init
                0x0000000080006c7c                external_interrupt_handler
 .text          0x0000000080006cbc     0x347a main.o
                0x0000000080006d70                sbrk
                0x0000000080006df0                perror
                0x0000000080006e0e                panic
                0x0000000080006e38                mycpu
                0x0000000080006e52                free_pagetable
                0x0000000080006f04                proc_find_pid
                0x0000000080006fde                push_off
                0x000000008000702a                pop_off
                0x000000008000709e                kinit
                0x00000000800070c4                freerange
                0x0000000080007118                kfree
                0x000000008000719c                kalloc
                0x00000000800071e8                walk
                0x00000000800072b6                mappages
                0x0000000080007358                dump_physical_memory
                0x0000000080007422                vmprint_rec
                0x00000000800075b4                vmprint
                0x00000000800075e2                enable_mmu
                0x0000000080007616                uart_rx_handler
                0x0000000080007640                uart_init
                0x0000000080007686                putc
                0x00000000800076c8                putchar
                0x00000000800076ea                mmu_init
                0x0000000080007898                walkaddr
                0x0000000080007908                copyout
                0x00000000800079d6                copyin
                0x0000000080007a9e                copyinstr
                0x0000000080007bc4                setting_user_pagetable
                0x0000000080008194                alloc_prog
                0x0000000080008e4c                free_proc
                0x0000000080008f8a                get_current_file_table
                0x0000000080008fb8                enable_timer_interrupts
                0x0000000080009002                disable_timer_interrupts
                0x0000000080009032                timer_reset
                0x000000008000905e                remove_kernel_state
                0x00000000800090f2                kernel_yield
                0x000000008000920a                kernel_yield_return
                0x00000000800092f0                timer_handler
                0x00000000800094e8                uvmunmap
                0x00000000800095a0                uvm_alloc
                0x00000000800096f0                uvm_dealloc
                0x000000008000975a                syscall_handler
                0x0000000080009e84                timerinit
                0x0000000080009edc                get_current_proc
                0x0000000080009f06                global_init
                0x0000000080009ff0                main
 .text          0x000000008000a136     0x1a4c libc.o
                0x000000008000a206                malloc
                0x000000008000a2de                free
                0x000000008000a324                calloc
                0x000000008000a380                strdup
                0x000000008000a3da                strcmp
                0x000000008000a444                strstr
                0x000000008000a4e2                memset
                0x000000008000a610                memcmp
                0x000000008000a698                memmove
                0x000000008000a778                memcpy
                0x000000008000a7ac                strncmp
                0x000000008000a83a                strncpy
                0x000000008000a8c0                strlen
                0x000000008000a8fa                puts
                0x000000008000a934                strncat
                0x000000008000a9b6                strchr
                0x000000008000aa12                strtok
                0x000000008000ab76                exit
                0x000000008000ad9a                itoa
                0x000000008000aedc                vasprintf
                0x000000008000b9be                printf
                0x000000008000ba88                vsnprintf
                0x000000008000bb22                snprintf
 .text          0x000000008000bb82     0x352e syscall.o
                0x000000008000bba0                Sys_write
                0x000000008000bdd0                Sys_exit
                0x000000008000be98                Sys_sleep
                0x000000008000bf0e                Sys_tcsetpgrp
                0x000000008000bf8c                Sys_getpid
                0x000000008000bfb4                Sys_wait
                0x000000008000c114                Sys_isatty
                0x000000008000c1cc                Sys_open
                0x000000008000c2a2                Sys_opendir
                0x000000008000c382                Sys_getcwd
                0x000000008000c48c                Sys_chdir
                0x000000008000c942                Sys_mkdir
                0x000000008000c9c8                Sys_rmdir
                0x000000008000ca3e                Sys_unlink
                0x000000008000cab4                Sys_rename
                0x000000008000cb6c                Sys_link
                0x000000008000cc24                Sys_symlink
                0x000000008000ccdc                Sys_stat
                0x000000008000cd92                Sys_readlink
                0x000000008000ce88                Sys_lstat
                0x000000008000cf3e                Sys_chmod
                0x000000008000cfc4                Sys_chown
                0x000000008000d05a                Sys_settimeofday
                0x000000008000d092                Sys_utimes
                0x000000008000d128                Sys_umask
                0x000000008000d1a4                Sys_gettimeofday
                0x000000008000d1ea                Sys_getuid
                0x000000008000d21a                Sys_getgid
                0x000000008000d24a                Sys_setuid
                0x000000008000d2be                Sys_setgid
                0x000000008000d332                Sys_realpath
                0x000000008000d42e                Sys_readdir
                0x000000008000d58a                Sys_closedir
                0x000000008000d600                Sys_fork
                0x000000008000d728                Sys_execv
                0x000000008000dcd4                Sys_execve
                0x000000008000e442                Sys_execved
                0x000000008000ebb0                Sys_brk
                0x000000008000ec76                Sys_dup2
                0x000000008000ed06                Sys_pipe
                0x000000008000eddc                Sys_read
                0x000000008000efc6                Sys_fstat
                0x000000008000f056                Sys_lseek
 .text          0x000000008000f0b0     0x38c2 kernel_proc_list_neoc.o
                0x000000008000f0b0                neoc_proc_list_init
                0x000000008000f48e                neoc_proc_list_add
                0x000000008000f9ea                neoc_proc_list_remove
                0x0000000080010d38                neoc_proc_list_replace
                0x000000008001154a                neoc_proc_find_zombie_in_pgrp
                0x000000008001166e                neoc_proc_is_file_open
                0x00000000800117d8                neoc_kernel_state_init
                0x0000000080011bbe                neoc_kernel_state_clear
                0x0000000080011c3c                neoc_kernel_state_add
                0x0000000080011f08                neoc_kernel_state_find
                0x000000008001220a                neoc_kernel_state_take
                0x0000000080012726                neoc_kernel_state_take_first
 .text          0x0000000080012972      0x164 kernel_neoc_runtime.o
                0x0000000080012972                int_equals
                0x00000000800129ac                charp_equals
                0x00000000800129fc                come_calloc
                0x0000000080012a38                come_increment_ref_count
                0x0000000080012a64                come_call_finalizer
                0x0000000080013000                . = ALIGN (0x1000)

.rodata         0x0000000080013000     0x2a3d
 *(.rodata*)
 .rodata        0x0000000080013000      0x190 fs.o
 .rodata        0x0000000080013190     0x2200 main.o
 .rodata        0x0000000080015390       0x39 libc.o
 *fill*         0x00000000800153c9        0x7 
 .rodata        0x00000000800153d0      0x198 syscall.o
 .rodata        0x0000000080015568      0x4d5 kernel_proc_list_neoc.o

.note.gnu.build-id
                0x0000000080015a40       0x24
 .note.gnu.build-id
                0x0000000080015a40       0x24 entry.o

.eh_frame       0x0000000080015a68     0x3028
 .eh_frame      0x0000000080015a68      0x2e8 start.o
 .eh_frame      0x0000000080015d50      0xd60 fs.o
                                        0xd78 (size before relaxing)
 .eh_frame      0x0000000080016ab0      0x148 plic.o
                                        0x158 (size before relaxing)
 .eh_frame      0x0000000080016bf8       0x50 trap_c.o
                                         0x68 (size before relaxing)
 .eh_frame      0x0000000080016c48      0x9e0 main.o
                                        0x9f0 (size before relaxing)
 .eh_frame      0x0000000080017628      0x570 libc.o
                                        0x580 (size before relaxing)
 .eh_frame      0x0000000080017b98      0x748 syscall.o
                                        0x760 (size before relaxing)
 .eh_frame      0x00000000800182e0      0x6e8 kernel_proc_list_neoc.o
                                        0x700 (size before relaxing)
 .eh_frame      0x00000000800189c8       0xc8 kernel_neoc_runtime.o
                                         0xe0 (size before relaxing)

.eh_frame_hdr   0x0000000080018a90      0x934
 .eh_frame_hdr  0x0000000080018a90      0x934 start.o
                0x0000000080018a90                __GNU_EH_FRAME_HDR

.data           0x00000000800193c8    0x1f830
 *(.data .data.*)
 .data          0x00000000800193c8        0x0 entry.o
 .data          0x00000000800193c8        0x0 start.o
 .data          0x00000000800193c8        0x0 userret.o
 .data          0x00000000800193c8        0x0 trap.o
 .data          0x00000000800193c8        0x0 fs.o
 .data          0x00000000800193c8        0x0 plic.o
 .data          0x00000000800193c8        0x0 trap_c.o
 .data          0x00000000800193c8    0x1f740 main.o
                0x00000000800193c8                sh_elf
                0x0000000080038aa8                gUsers
 .data          0x0000000080038b08       0xf0 libc.o
                0x0000000080038b08                __stdin
                0x0000000080038b58                __stdout
                0x0000000080038ba8                __stderr
 .data          0x0000000080038bf8        0x0 syscall.o
 .data          0x0000000080038bf8        0x0 kernel_proc_list_neoc.o
 .data          0x0000000080038bf8        0x0 kernel_neoc_runtime.o
                0x0000000080038c00                . = ALIGN (0x10)

.sdata          0x0000000080038c00       0x20
 *(.sdata*)
 .sdata         0x0000000080038c00        0x4 main.o
                0x0000000080038c00                sh_elf_len
 *fill*         0x0000000080038c04        0x4 
 .sdata         0x0000000080038c08       0x18 libc.o
                0x0000000080038c08                stdin
                0x0000000080038c10                stdout
                0x0000000080038c18                stderr
                0x0000000080039000                . = ALIGN (0x1000)
                0x0000000080039000                PROVIDE (_bss_start = .)

.bss            0x0000000080039000    0x103d8
 *(.bss)
 .bss           0x0000000080039000        0x0 entry.o
 .bss           0x0000000080039000        0x0 start.o
 .bss           0x0000000080039000        0x0 userret.o
 .bss           0x0000000080039000        0x0 trap.o
 .bss           0x0000000080039000    0x10040 fs.o
                0x0000000080039000                gPipes
                0x000000008003f600                gFiles
 .bss           0x0000000080049040        0x0 plic.o
 .bss           0x0000000080049040        0x0 trap_c.o
 .bss           0x0000000080049040      0x338 main.o
                0x0000000080049040                gCPU
                0x0000000080049150                gProc
                0x0000000080049350                kmem
 .bss           0x0000000080049378        0x8 libc.o
 .bss           0x0000000080049380       0x10 syscall.o
 .bss           0x0000000080049390       0x10 kernel_proc_list_neoc.o
 .bss           0x00000000800493a0        0x0 kernel_neoc_runtime.o
 *(.bss.*)
 *(.sbss)
 .sbss          0x00000000800493a0       0x10 fs.o
                0x00000000800493a0                gFreePipes
                0x00000000800493a8                gFreeFiles
 .sbss          0x00000000800493b0       0x18 main.o
                0x00000000800493b0                kernel_pagetable
                0x00000000800493b8                gNumProc
                0x00000000800493bc                gActiveProc
                0x00000000800493c0                last_key
                0x00000000800493c4                g_time_offset
 .sbss          0x00000000800493c8        0x8 libc.o
                0x00000000800493c8                free_list
 .sbss          0x00000000800493d0        0x8 kernel_neoc_runtime.o
                0x00000000800493d0                neo_current_frame
 *(.sbss.*)
                0x00000000800493d8                PROVIDE (_bss_end = .)
                [!provide]                        PROVIDE (_code_end = .)
                0x00000000800893d8                . = (. + STACK_MAX)
                0x00000000800893d8                PROVIDE (stack_top = .)
                0x000000008008a000                . = ALIGN (0x1000)
                0x000000008008a000                TRAPFRAME = .
                0x000000008008b000                . = (. + 0x1000)
                0x000000008008b000                . = ALIGN (0x1000)
                0x000000008008b000                TRAPFRAME2 = .
                0x000000008008c000                . = (. + 0x1000)
                0x000000008008c000                . = ALIGN (0x1000)
                0x000000008008c000                PROVIDE (TRAMPOLINE = .)

.trampoline     0x000000008008c000      0x560
 *(.trampoline)
 .trampoline    0x000000008008c000      0x560 trap.o
                0x000000008008c000                trapvec
                0x000000008008c1fc                swtch
                0x000000008008c2be                enter_user
                0x000000008008c2f6                swtch_debug
                0x000000008008c3b8                mtvec
                0x000000008008c3d2                asm_memmove
                0x000000008008c408                yield
                0x000000008008c4b4                yield_return

.rela.dyn       0x000000008008c560        0x0
 .rela.text     0x000000008008c560        0x0 entry.o
 .rela.trampoline
                0x000000008008c560        0x0 entry.o
                0x000000008008d560                . = (. + 0x1000)
                0x000000008008e000                . = ALIGN (0x1000)
                0x000000008008e000                PROVIDE (COMMON = .)

.common         0x000000008008e000    0x40020
 *(.common)
 .common        0x000000008008e000    0x40020 main.o
                0x000000008008e000                kernel_sp
                0x000000008008e008                user_sp
                0x000000008008e010                kernel_satp
                0x000000008008e018                user_satp
                0x000000008008e020                yield_stack
                0x000000008010f020                . = ((. + STACK_MAX) + 0x1000)
                0x0000000080110000                . = ALIGN (0x1000)
                0x0000000080110000                PROVIDE (_end = .)
                0x0000000090000000                . = 0x90000000
                0x0000000090000000                . = ALIGN (0x1000)
                0x0000000090000000                PROVIDE (heap_limit = .)
                0x0000000090000000                PROVIDE (_end3 = .)
                0x00000000a0000000                . = 0xa0000000
                0x00000000a0000000                PROVIDE (PHYSTOP = .)

.riscv.attributes
                0x0000000000000000       0x78
 .riscv.attributes
                0x0000000000000000       0x72 entry.o
 .riscv.attributes
                0x0000000000000072       0x78 start.o
 .riscv.attributes
                0x00000000000000ea       0x72 userret.o
 .riscv.attributes
                0x000000000000015c       0x76 trap.o
 .riscv.attributes
                0x00000000000001d2       0x78 fs.o
 .riscv.attributes
                0x000000000000024a       0x74 plic.o
 .riscv.attributes
                0x00000000000002be       0x78 trap_c.o
 .riscv.attributes
                0x0000000000000336       0x78 main.o
 .riscv.attributes
                0x00000000000003ae       0x74 libc.o
 .riscv.attributes
                0x0000000000000422       0x78 syscall.o
 .riscv.attributes
                0x000000000000049a       0x74 kernel_proc_list_neoc.o
 .riscv.attributes
                0x000000000000050e       0x74 kernel_neoc_runtime.o

.comment        0x0000000000000000       0x34
 .comment       0x0000000000000000       0x34 start.o
                                         0x35 (size before relaxing)
 .comment       0x0000000000000034        0x0 fs.o
                                         0x35 (size before relaxing)
 .comment       0x0000000000000034        0x0 plic.o
                                         0x35 (size before relaxing)
 .comment       0x0000000000000034        0x0 trap_c.o
                                         0x35 (size before relaxing)
 .comment       0x0000000000000034        0x0 main.o
                                         0x35 (size before relaxing)
 .comment       0x0000000000000034        0x0 libc.o
                                         0x35 (size before relaxing)
 .comment       0x0000000000000034        0x0 syscall.o
                                         0x35 (size before relaxing)
 .comment       0x0000000000000034        0x0 kernel_proc_list_neoc.o
                                         0x35 (size before relaxing)
 .comment       0x0000000000000034        0x0 kernel_neoc_runtime.o
                                         0x35 (size before relaxing)

.note.GNU-stack
                0x0000000000000000        0x0
 .note.GNU-stack
                0x0000000000000000        0x0 start.o
 .note.GNU-stack
                0x0000000000000000        0x0 fs.o
 .note.GNU-stack
                0x0000000000000000        0x0 plic.o
 .note.GNU-stack
                0x0000000000000000        0x0 trap_c.o
 .note.GNU-stack
                0x0000000000000000        0x0 main.o
 .note.GNU-stack
                0x0000000000000000        0x0 libc.o
 .note.GNU-stack
                0x0000000000000000        0x0 syscall.o
 .note.GNU-stack
                0x0000000000000000        0x0 kernel_proc_list_neoc.o
 .note.GNU-stack
                0x0000000000000000        0x0 kernel_neoc_runtime.o

.debug_info     0x0000000000000000     0xd04c
 *(.debug_info)
 .debug_info    0x0000000000000000       0x2e entry.o
 .debug_info    0x000000000000002e      0x3a1 start.o
 .debug_info    0x00000000000003cf       0x2e trap.o
 .debug_info    0x00000000000003fd     0x3c68 fs.o
 .debug_info    0x0000000000004065      0x23f plic.o
 .debug_info    0x00000000000042a4       0xfa trap_c.o
 .debug_info    0x000000000000439e     0x2d56 main.o
 .debug_info    0x00000000000070f4     0x1338 libc.o
 .debug_info    0x000000000000842c     0x2eb1 syscall.o
 .debug_info    0x000000000000b2dd     0x1a3b kernel_proc_list_neoc.o
 .debug_info    0x000000000000cd18      0x334 kernel_neoc_runtime.o

.debug_abbrev   0x0000000000000000     0x189c
 *(.debug_abbrev)
 .debug_abbrev  0x0000000000000000       0x14 entry.o
 .debug_abbrev  0x0000000000000014      0x153 start.o
 .debug_abbrev  0x0000000000000167       0x14 trap.o
 .debug_abbrev  0x000000000000017b      0x430 fs.o
 .debug_abbrev  0x00000000000005ab      0x140 plic.o
 .debug_abbrev  0x00000000000006eb       0xdb trap_c.o
 .debug_abbrev  0x00000000000007c6      0x5d1 main.o
 .debug_abbrev  0x0000000000000d97      0x375 libc.o
 .debug_abbrev  0x000000000000110c      0x304 syscall.o
 .debug_abbrev  0x0000000000001410      0x33c kernel_proc_list_neoc.o
 .debug_abbrev  0x000000000000174c      0x150 kernel_neoc_runtime.o

.debug_line     0x0000000000000000    0x127de
 *(.debug_line)
 .debug_line    0x0000000000000000       0x67 entry.o
 .debug_line    0x0000000000000067      0x2fa start.o
 .debug_line    0x0000000000000361      0x860 trap.o
 .debug_line    0x0000000000000bc1     0x5f81 fs.o
 .debug_line    0x0000000000006b42      0x251 plic.o
 .debug_line    0x0000000000006d93       0xa5 trap_c.o
 .debug_line    0x0000000000006e38     0x3117 main.o
 .debug_line    0x0000000000009f4f     0x198d libc.o
 .debug_line    0x000000000000b8dc     0x2ff4 syscall.o
 .debug_line    0x000000000000e8d0     0x3de2 kernel_proc_list_neoc.o
 .debug_line    0x00000000000126b2      0x12c kernel_neoc_runtime.o

.debug_str      0x0000000000000000     0x20a3
 *(.debug_str)
 .debug_str     0x0000000000000000     0x20a3 entry.o
                                         0x28 (size before relaxing)
 .debug_str     0x00000000000020a3        0x0 start.o
                                        0x1f1 (size before relaxing)
 .debug_str     0x00000000000020a3        0x0 trap.o
                                         0x27 (size before relaxing)
 .debug_str     0x00000000000020a3        0x0 fs.o
                                        0xcd1 (size before relaxing)
 .debug_str     0x00000000000020a3        0x0 plic.o
                                        0x1b9 (size before relaxing)
 .debug_str     0x00000000000020a3        0x0 trap_c.o
                                        0x18d (size before relaxing)
 .debug_str     0x00000000000020a3        0x0 main.o
                                        0xea0 (size before relaxing)
 .debug_str     0x00000000000020a3        0x0 libc.o
                                        0x492 (size before relaxing)
 .debug_str     0x00000000000020a3        0x0 syscall.o
                                        0xad5 (size before relaxing)
 .debug_str     0x00000000000020a3        0x0 kernel_proc_list_neoc.o
                                        0xa41 (size before relaxing)
 .debug_str     0x00000000000020a3        0x0 kernel_neoc_runtime.o
                                        0x26d (size before relaxing)

.debug_line_str
                0x0000000000000000      0x187
 *(.debug_line_str)
 .debug_line_str
                0x0000000000000000      0x187 start.o
                                         0x77 (size before relaxing)
 .debug_line_str
                0x0000000000000187        0x0 fs.o
                                         0x88 (size before relaxing)
 .debug_line_str
                0x0000000000000187        0x0 plic.o
                                         0x74 (size before relaxing)
 .debug_line_str
                0x0000000000000187        0x0 trap_c.o
                                         0x74 (size before relaxing)
 .debug_line_str
                0x0000000000000187        0x0 main.o
                                         0x99 (size before relaxing)
 .debug_line_str
                0x0000000000000187        0x0 libc.o
                                         0x97 (size before relaxing)
 .debug_line_str
                0x0000000000000187        0x0 syscall.o
                                         0x97 (size before relaxing)
 .debug_line_str
                0x0000000000000187        0x0 kernel_proc_list_neoc.o
                                        0x11d (size before relaxing)
 .debug_line_str
                0x0000000000000187        0x0 kernel_neoc_runtime.o
                                         0xa6 (size before relaxing)
OUTPUT(kernel.elf elf64-littleriscv)

.debug_aranges  0x0000000000000000      0x210
 .debug_aranges
                0x0000000000000000       0x30 entry.o
 .debug_aranges
                0x0000000000000030       0x30 start.o
 .debug_aranges
                0x0000000000000060       0x30 trap.o
 .debug_aranges
                0x0000000000000090       0x30 fs.o
 .debug_aranges
                0x00000000000000c0       0x30 plic.o
 .debug_aranges
                0x00000000000000f0       0x30 trap_c.o
 .debug_aranges
                0x0000000000000120       0x30 main.o
 .debug_aranges
                0x0000000000000150       0x30 libc.o
 .debug_aranges
                0x0000000000000180       0x30 syscall.o
 .debug_aranges
                0x00000000000001b0       0x30 kernel_proc_list_neoc.o
 .debug_aranges
                0x00000000000001e0       0x30 kernel_neoc_runtime.o

.debug_rnglists
                0x0000000000000000       0xfb
 .debug_rnglists
                0x0000000000000000       0x69 fs.o
 .debug_rnglists
                0x0000000000000069       0x17 main.o
 .debug_rnglists
                0x0000000000000080       0x22 libc.o
 .debug_rnglists
                0x00000000000000a2       0x59 syscall.o
