	.file	"sh.c"
	.option nopic
	.attribute arch, "rv64i2p1_m2p0_a2p1_f2p2_d2p2_c2p0_zicsr2p0_zifencei2p0"
	.attribute unaligned_access, 0
	.attribute stack_align, 16
	.text
.Ltext0:
	.cfi_sections	.debug_frame
	.file 0 "/Users/ab25cq/minux9-dev" "sh.c"
	.local	g_cmdline
	.comm	g_cmdline,64,8
	.align	1
	.globl	xisalpha
	.type	xisalpha, @function
xisalpha:
.LFB0:
	.file 1 "sh.c"
	.loc 1 9 1
	.cfi_startproc
	addi	sp,sp,-48
	.cfi_def_cfa_offset 48
	sd	ra,40(sp)
	sd	s0,32(sp)
	.cfi_offset 1, -8
	.cfi_offset 8, -16
	addi	s0,sp,48
	.cfi_def_cfa 8, 0
	mv	a5,a0
	sb	a5,-33(s0)
	.loc 1 10 41
	lbu	a5,-33(s0)
	andi	a4,a5,0xff
	li	a5,96
	bleu	a4,a5,.L2
	.loc 1 10 28 discriminator 1
	lbu	a5,-33(s0)
	andi	a4,a5,0xff
	li	a5,122
	bleu	a4,a5,.L3
.L2:
	.loc 1 10 41 discriminator 4
	lbu	a5,-33(s0)
	andi	a4,a5,0xff
	li	a5,64
	bleu	a4,a5,.L4
	.loc 1 10 54 discriminator 5
	lbu	a5,-33(s0)
	andi	a4,a5,0xff
	li	a5,90
	bgtu	a4,a5,.L4
.L3:
	.loc 1 10 41 discriminator 7
	li	a5,1
	.loc 1 10 41 is_stmt 0
	j	.L5
.L4:
	.loc 1 10 41 discriminator 8
	li	a5,0
.L5:
	.loc 1 10 9 is_stmt 1 discriminator 10
	sw	a5,-20(s0)
	.loc 1 11 12
	lw	a5,-20(s0)
	.loc 1 12 1
	mv	a0,a5
	ld	ra,40(sp)
	.cfi_restore 1
	ld	s0,32(sp)
	.cfi_restore 8
	.cfi_def_cfa 2, 48
	addi	sp,sp,48
	.cfi_def_cfa_offset 0
	jr	ra
	.cfi_endproc
.LFE0:
	.size	xisalpha, .-xisalpha
	.align	1
	.globl	xisblank
	.type	xisblank, @function
xisblank:
.LFB1:
	.loc 1 15 1
	.cfi_startproc
	addi	sp,sp,-32
	.cfi_def_cfa_offset 32
	sd	ra,24(sp)
	sd	s0,16(sp)
	.cfi_offset 1, -8
	.cfi_offset 8, -16
	addi	s0,sp,32
	.cfi_def_cfa 8, 0
	mv	a5,a0
	sb	a5,-17(s0)
	.loc 1 16 21
	lbu	a5,-17(s0)
	andi	a4,a5,0xff
	li	a5,32
	beq	a4,a5,.L8
	.loc 1 16 21 is_stmt 0 discriminator 2
	lbu	a5,-17(s0)
	andi	a4,a5,0xff
	li	a5,9
	bne	a4,a5,.L9
.L8:
	.loc 1 16 21 discriminator 3
	li	a5,1
	.loc 1 16 21
	j	.L10
.L9:
	.loc 1 16 21 discriminator 4
	li	a5,0
.L10:
	.loc 1 17 1 is_stmt 1
	mv	a0,a5
	ld	ra,24(sp)
	.cfi_restore 1
	ld	s0,16(sp)
	.cfi_restore 8
	.cfi_def_cfa 2, 32
	addi	sp,sp,32
	.cfi_def_cfa_offset 0
	jr	ra
	.cfi_endproc
.LFE1:
	.size	xisblank, .-xisblank
	.align	1
	.globl	xisdigit
	.type	xisdigit, @function
xisdigit:
.LFB2:
	.loc 1 20 1
	.cfi_startproc
	addi	sp,sp,-32
	.cfi_def_cfa_offset 32
	sd	ra,24(sp)
	sd	s0,16(sp)
	.cfi_offset 1, -8
	.cfi_offset 8, -16
	addi	s0,sp,32
	.cfi_def_cfa 8, 0
	mv	a5,a0
	sb	a5,-17(s0)
	.loc 1 21 22
	lbu	a5,-17(s0)
	andi	a4,a5,0xff
	li	a5,47
	bleu	a4,a5,.L13
	.loc 1 21 22 is_stmt 0 discriminator 1
	lbu	a5,-17(s0)
	andi	a4,a5,0xff
	li	a5,57
	bgtu	a4,a5,.L13
	.loc 1 21 22 discriminator 3
	li	a5,1
	.loc 1 21 22
	j	.L14
.L13:
	.loc 1 21 22 discriminator 4
	li	a5,0
.L14:
	.loc 1 22 1 is_stmt 1
	mv	a0,a5
	ld	ra,24(sp)
	.cfi_restore 1
	ld	s0,16(sp)
	.cfi_restore 8
	.cfi_def_cfa 2, 32
	addi	sp,sp,32
	.cfi_def_cfa_offset 0
	jr	ra
	.cfi_endproc
.LFE2:
	.size	xisdigit, .-xisdigit
	.align	1
	.globl	xisalnum
	.type	xisalnum, @function
xisalnum:
.LFB3:
	.loc 1 25 1
	.cfi_startproc
	addi	sp,sp,-32
	.cfi_def_cfa_offset 32
	sd	ra,24(sp)
	sd	s0,16(sp)
	.cfi_offset 1, -8
	.cfi_offset 8, -16
	addi	s0,sp,32
	.cfi_def_cfa 8, 0
	mv	a5,a0
	sb	a5,-17(s0)
	.loc 1 26 12
	lbu	a5,-17(s0)
	mv	a0,a5
	call	xisalpha
	mv	a5,a0
	.loc 1 26 24 discriminator 1
	bne	a5,zero,.L17
	.loc 1 26 27 discriminator 2
	lbu	a5,-17(s0)
	mv	a0,a5
	call	xisdigit
	mv	a5,a0
	.loc 1 26 24 discriminator 1
	beq	a5,zero,.L18
.L17:
	.loc 1 26 24 is_stmt 0 discriminator 3
	li	a5,1
	.loc 1 26 24
	j	.L19
.L18:
	.loc 1 26 24 discriminator 4
	li	a5,0
.L19:
	.loc 1 27 1 is_stmt 1
	mv	a0,a5
	ld	ra,24(sp)
	.cfi_restore 1
	ld	s0,16(sp)
	.cfi_restore 8
	.cfi_def_cfa 2, 32
	addi	sp,sp,32
	.cfi_def_cfa_offset 0
	jr	ra
	.cfi_endproc
.LFE3:
	.size	xisalnum, .-xisalnum
	.align	1
	.type	isdir, @function
isdir:
.LFB4:
	.loc 1 30 36
	.cfi_startproc
	addi	sp,sp,-48
	.cfi_def_cfa_offset 48
	sd	ra,40(sp)
	sd	s0,32(sp)
	.cfi_offset 1, -8
	.cfi_offset 8, -16
	addi	s0,sp,48
	.cfi_def_cfa 8, 0
	sd	a0,-40(s0)
.LBB2:
	.loc 1 31 14
	ld	a5,-40(s0)
	mv	a0,a5
	li	a7,76
 #APP
# 31 "sh.c" 1
	ecall
# 0 "" 2
 #NO_APP
	mv	a5,a0
	sext.w	a5,a5
.LBE2:
	.loc 1 31 9
	sw	a5,-20(s0)
	.loc 1 32 8
	lw	a5,-20(s0)
	sext.w	a5,a5
	blt	a5,zero,.L22
.LBB3:
	.loc 1 32 20 discriminator 1
	lw	a5,-20(s0)
	mv	a0,a5
	li	a7,78
 #APP
# 32 "sh.c" 1
	ecall
# 0 "" 2
 #NO_APP
.LBE3:
	.loc 1 32 41 discriminator 1
	li	a5,1
	.loc 1 32 41 is_stmt 0
	j	.L23
.L22:
	.loc 1 33 12 is_stmt 1
	li	a5,0
.L23:
	.loc 1 34 1
	mv	a0,a5
	ld	ra,40(sp)
	.cfi_restore 1
	ld	s0,32(sp)
	.cfi_restore 8
	.cfi_def_cfa 2, 48
	addi	sp,sp,48
	.cfi_def_cfa_offset 0
	jr	ra
	.cfi_endproc
.LFE4:
	.size	isdir, .-isdir
	.section	.rodata
	.align	3
.LC0:
	.string	"MINUX_CMDLINE="
	.align	3
.LC1:
	.string	"REDIRECT WRITE FILE CAN'T BE OPENED"
	.text
	.align	1
	.globl	run_command
	.type	run_command, @function
run_command:
.LFB5:
	.loc 1 53 1
	.cfi_startproc
	addi	sp,sp,-448
	.cfi_def_cfa_offset 448
	sd	ra,440(sp)
	sd	s0,432(sp)
	.cfi_offset 1, -8
	.cfi_offset 8, -16
	addi	s0,sp,448
	.cfi_def_cfa 8, 0
	mv	a5,a0
	sd	a1,-448(s0)
	mv	a4,a2
	sw	a5,-436(s0)
	mv	a5,a4
	sw	a5,-440(s0)
	.loc 1 54 9
	sw	zero,-104(s0)
	sw	zero,-100(s0)
	.loc 1 56 41
	lw	a4,-436(s0)
	li	a5,296
	mul	a5,a4,a5
	.loc 1 56 22
	ld	a4,-448(s0)
	add	a5,a4,a5
	sd	a5,-72(s0)
	.loc 1 58 25
	lw	a5,-440(s0)
	addiw	a5,a5,-1
	sext.w	a5,a5
	.loc 1 58 7
	lw	a4,-436(s0)
	sext.w	a4,a4
	bne	a4,a5,.L25
.LBB4:
	.loc 1 61 14
	sw	zero,-20(s0)
	.loc 1 61 9
	j	.L26
.L27:
	.loc 1 62 22
	lw	a5,-20(s0)
	slli	a5,a5,4
	ld	a4,-72(s0)
	add	a4,a4,a5
	.loc 1 62 20
	lw	a3,-20(s0)
	addi	a5,s0,-264
	slli	a3,a3,3
	add	a5,a3,a5
	sd	a4,0(a5)
	.loc 1 61 39 discriminator 3
	lw	a5,-20(s0)
	addiw	a5,a5,1
	sw	a5,-20(s0)
.L26:
	.loc 1 61 27 discriminator 1
	ld	a5,-72(s0)
	lw	a5,256(a5)
	.loc 1 61 19 discriminator 1
	lw	a4,-20(s0)
	sext.w	a4,a4
	blt	a4,a5,.L27
	.loc 1 64 17
	lw	a4,-20(s0)
	addi	a5,s0,-264
	slli	a4,a4,3
	add	a5,a4,a5
	sd	zero,0(a5)
	.loc 1 68 13
	sw	zero,-24(s0)
	.loc 1 69 21
	lla	a5,.LC0
	sd	a5,-96(s0)
.LBB5:
	.loc 1 70 18
	sw	zero,-28(s0)
	.loc 1 70 9
	j	.L28
.L30:
	.loc 1 70 94 discriminator 4
	lw	a5,-28(s0)
	ld	a4,-96(s0)
	add	a4,a4,a5
	.loc 1 70 82 discriminator 4
	lw	a5,-24(s0)
	addiw	a3,a5,1
	sw	a3,-24(s0)
	.loc 1 70 94 discriminator 4
	lbu	a4,0(a4)
	.loc 1 70 86 discriminator 4
	addi	a5,a5,-16
	add	a5,a5,s0
	sb	a4,-344(a5)
	.loc 1 70 69 discriminator 4
	lw	a5,-28(s0)
	addiw	a5,a5,1
	sw	a5,-28(s0)
.L28:
	.loc 1 70 31 discriminator 1
	lw	a5,-28(s0)
	ld	a4,-96(s0)
	add	a5,a4,a5
	lbu	a5,0(a5)
	.loc 1 70 35 discriminator 1
	beq	a5,zero,.L29
	.loc 1 70 35 is_stmt 0 discriminator 3
	lw	a5,-24(s0)
	sext.w	a4,a5
	li	a5,94
	ble	a4,a5,.L30
.L29:
.LBE5:
.LBB6:
	.loc 1 71 18 is_stmt 1
	sw	zero,-32(s0)
	.loc 1 71 9
	j	.L31
.L33:
	.loc 1 71 98 discriminator 4
	lw	a5,-24(s0)
	addiw	a4,a5,1
	sw	a4,-24(s0)
	.loc 1 71 113 discriminator 4
	lla	a3,g_cmdline
	lw	a4,-32(s0)
	add	a4,a3,a4
	lbu	a4,0(a4)
	.loc 1 71 102 discriminator 4
	addi	a5,a5,-16
	add	a5,a5,s0
	sb	a4,-344(a5)
	.loc 1 71 85 discriminator 4
	lw	a5,-32(s0)
	addiw	a5,a5,1
	sw	a5,-32(s0)
.L31:
	.loc 1 71 47 discriminator 1
	lla	a4,g_cmdline
	lw	a5,-32(s0)
	add	a5,a4,a5
	lbu	a5,0(a5)
	.loc 1 71 51 discriminator 1
	beq	a5,zero,.L32
	.loc 1 71 51 is_stmt 0 discriminator 3
	lw	a5,-24(s0)
	sext.w	a4,a5
	li	a5,94
	ble	a4,a5,.L33
.L32:
.LBE6:
	.loc 1 72 20 is_stmt 1
	lw	a5,-24(s0)
	addi	a5,a5,-16
	add	a5,a5,s0
	sb	zero,-344(a5)
	.loc 1 73 32
	addi	a5,s0,-360
	sd	a5,-120(s0)
	.loc 1 73 50
	sd	zero,-112(s0)
.LBB7:
	.loc 1 76 9
	ld	a5,-264(s0)
	mv	a0,a5
	addi	a5,s0,-264
	mv	a1,a5
	addi	a5,s0,-120
	mv	a2,a5
	li	a7,100
 #APP
# 76 "sh.c" 1
	ecall
# 0 "" 2
 #NO_APP
.LBE7:
	.loc 1 87 34
	ld	a5,-72(s0)
	lbu	a5,260(a5)
	.loc 1 87 11
	beq	a5,zero,.L34
.LBB8:
	.loc 1 89 23
	ld	a5,-72(s0)
	lw	a5,292(a5)
	.loc 1 89 15
	beq	a5,zero,.L35
.LBB9:
	.loc 1 90 22
	ld	a5,-72(s0)
	addi	a5,a5,260
	mv	a0,a5
	li	a5,4096
	addi	a1,a5,-1535
	li	a2,420
	li	a7,66
 #APP
# 90 "sh.c" 1
	ecall
# 0 "" 2
 #NO_APP
	mv	a5,a0
	sext.w	a5,a5
.LBE9:
	.loc 1 90 20
	sw	a5,-36(s0)
	j	.L36
.L35:
.LBB10:
	.loc 1 93 22
	ld	a5,-72(s0)
	addi	a5,a5,260
	mv	a0,a5
	li	a1,1537
	li	a2,420
	li	a7,66
 #APP
# 93 "sh.c" 1
	ecall
# 0 "" 2
 #NO_APP
	mv	a5,a0
	sext.w	a5,a5
.LBE10:
	.loc 1 93 20
	sw	a5,-36(s0)
.L36:
	.loc 1 96 15
	lw	a5,-36(s0)
	sext.w	a5,a5
	bge	a5,zero,.L37
	.loc 1 97 17
	lla	a0,.LC1
	call	puts
.LBB11:
	.loc 1 98 17
	li	a0,1
	li	a7,70
 #APP
# 98 "sh.c" 1
	ecall
# 0 "" 2
 #NO_APP
.L38:
	j	.L38
.L37:
.LBE11:
.LBB12:
	.loc 1 101 13
	lw	a5,-36(s0)
	mv	a0,a5
	li	a1,1
	li	a7,72
 #APP
# 101 "sh.c" 1
	ecall
# 0 "" 2
 #NO_APP
.LBE12:
.LBB13:
	.loc 1 102 13
	lw	a5,-36(s0)
	mv	a0,a5
	li	a7,67
 #APP
# 102 "sh.c" 1
	ecall
# 0 "" 2
 #NO_APP
.L34:
.LBE13:
.LBE8:
.LBB14:
	.loc 1 106 9
	ld	a5,-264(s0)
	mv	a0,a5
	addi	a5,s0,-264
	mv	a1,a5
	addi	a5,s0,-120
	mv	a2,a5
	li	a7,100
 #APP
# 106 "sh.c" 1
	ecall
# 0 "" 2
 #NO_APP
.LBE14:
	.loc 1 108 17
	ld	a5,-264(s0)
	.loc 1 108 12
	beq	a5,zero,.L39
	.loc 1 108 28 discriminator 1
	ld	a5,-264(s0)
	.loc 1 108 31 discriminator 1
	lbu	a5,0(a5)
	.loc 1 108 21 discriminator 1
	beq	a5,zero,.L39
	.loc 1 108 50 discriminator 2
	ld	a5,-264(s0)
	.loc 1 108 39 discriminator 2
	li	a1,47
	mv	a0,a5
	call	strchr
	mv	a5,a0
	.loc 1 108 35 discriminator 1
	bne	a5,zero,.L39
.LBB15:
	.loc 1 110 21
	li	a5,47
	sb	a5,-424(s0)
	.loc 1 111 17
	sw	zero,-40(s0)
	.loc 1 111 28
	j	.L40
.L42:
	.loc 1 111 86 discriminator 4
	ld	a4,-264(s0)
	.loc 1 111 89 discriminator 4
	lw	a5,-40(s0)
	add	a4,a4,a5
	.loc 1 111 76 discriminator 4
	lw	a5,-40(s0)
	addiw	a5,a5,1
	sext.w	a5,a5
	.loc 1 111 89 discriminator 4
	lbu	a4,0(a4)
	.loc 1 111 80 discriminator 4
	addi	a5,a5,-16
	add	a5,a5,s0
	sb	a4,-408(a5)
	.loc 1 111 95 discriminator 4
	lw	a5,-40(s0)
	addiw	a5,a5,1
	sw	a5,-40(s0)
.L40:
	.loc 1 111 33 discriminator 1
	ld	a4,-264(s0)
	.loc 1 111 36 discriminator 1
	lw	a5,-40(s0)
	add	a5,a4,a5
	lbu	a5,0(a5)
	.loc 1 111 40 discriminator 1
	beq	a5,zero,.L41
	.loc 1 111 40 is_stmt 0 discriminator 3
	lw	a5,-40(s0)
	sext.w	a4,a5
	li	a5,61
	ble	a4,a5,.L42
.L41:
	.loc 1 112 19 is_stmt 1
	lw	a5,-40(s0)
	addiw	a5,a5,1
	sext.w	a5,a5
	.loc 1 112 23
	addi	a5,a5,-16
	add	a5,a5,s0
	sb	zero,-408(a5)
	.loc 1 113 21
	addi	a5,s0,-424
	sd	a5,-264(s0)
.LBB16:
	.loc 1 114 13
	ld	a5,-264(s0)
	mv	a0,a5
	addi	a5,s0,-264
	mv	a1,a5
	addi	a5,s0,-120
	mv	a2,a5
	li	a7,100
 #APP
# 114 "sh.c" 1
	ecall
# 0 "" 2
 #NO_APP
.L39:
.LBE16:
.LBE15:
.LBB17:
	.loc 1 116 9
	li	a0,127
	li	a7,70
 #APP
# 116 "sh.c" 1
	ecall
# 0 "" 2
 #NO_APP
.L43:
	j	.L43
.L25:
.LBE17:
.LBE4:
.LBB18:
.LBB19:
	.loc 1 119 9
	addi	a5,s0,-104
	mv	a0,a5
	li	a7,73
 #APP
# 119 "sh.c" 1
	ecall
# 0 "" 2
 #NO_APP
.LBE19:
.LBB20:
	.loc 1 121 19
	li	a7,68
 #APP
# 121 "sh.c" 1
	ecall
# 0 "" 2
 #NO_APP
	mv	a5,a0
.LBE20:
	.loc 1 121 13
	sw	a5,-76(s0)
	.loc 1 123 11
	lw	a5,-76(s0)
	sext.w	a5,a5
	bne	a5,zero,.L44
.LBB21:
	.loc 1 124 13
	lw	a5,-104(s0)
	mv	a0,a5
	li	a1,0
	li	a7,72
 #APP
# 124 "sh.c" 1
	ecall
# 0 "" 2
 #NO_APP
.LBE21:
.LBB22:
	.loc 1 125 13
	lw	a5,-104(s0)
	mv	a0,a5
	li	a7,67
 #APP
# 125 "sh.c" 1
	ecall
# 0 "" 2
 #NO_APP
.LBE22:
.LBB23:
	.loc 1 126 13
	lw	a5,-100(s0)
	mv	a0,a5
	li	a7,67
 #APP
# 126 "sh.c" 1
	ecall
# 0 "" 2
 #NO_APP
.LBE23:
	.loc 1 127 13
	lw	a5,-436(s0)
	addiw	a5,a5,1
	sext.w	a5,a5
	lw	a4,-440(s0)
	mv	a2,a4
	ld	a1,-448(s0)
	mv	a0,a5
	call	run_command
	j	.L60
.L44:
.LBB24:
.LBB25:
	.loc 1 130 13
	lw	a5,-104(s0)
	mv	a0,a5
	li	a7,67
 #APP
# 130 "sh.c" 1
	ecall
# 0 "" 2
 #NO_APP
.LBE25:
.LBB26:
	.loc 1 131 13
	lw	a5,-100(s0)
	mv	a0,a5
	li	a1,1
	li	a7,72
 #APP
# 131 "sh.c" 1
	ecall
# 0 "" 2
 #NO_APP
.LBE26:
.LBB27:
	.loc 1 132 13
	lw	a5,-100(s0)
	mv	a0,a5
	li	a7,67
 #APP
# 132 "sh.c" 1
	ecall
# 0 "" 2
 #NO_APP
.LBE27:
	.loc 1 136 18
	sw	zero,-44(s0)
	.loc 1 136 13
	j	.L46
.L47:
	.loc 1 137 26
	lw	a5,-44(s0)
	slli	a5,a5,4
	ld	a4,-72(s0)
	add	a4,a4,a5
	.loc 1 137 24
	lw	a3,-44(s0)
	addi	a5,s0,-264
	slli	a3,a3,3
	add	a5,a3,a5
	sd	a4,0(a5)
	.loc 1 136 43 discriminator 3
	lw	a5,-44(s0)
	addiw	a5,a5,1
	sw	a5,-44(s0)
.L46:
	.loc 1 136 31 discriminator 1
	ld	a5,-72(s0)
	lw	a5,256(a5)
	.loc 1 136 23 discriminator 1
	lw	a4,-44(s0)
	sext.w	a4,a4
	blt	a4,a5,.L47
	.loc 1 139 21
	lw	a4,-44(s0)
	addi	a5,s0,-264
	slli	a4,a4,3
	add	a5,a4,a5
	sd	zero,0(a5)
	.loc 1 142 17
	sw	zero,-48(s0)
	.loc 1 143 25
	lla	a5,.LC0
	sd	a5,-88(s0)
.LBB28:
	.loc 1 144 22
	sw	zero,-52(s0)
	.loc 1 144 13
	j	.L48
.L50:
	.loc 1 144 98 discriminator 4
	lw	a5,-52(s0)
	ld	a4,-88(s0)
	add	a4,a4,a5
	.loc 1 144 86 discriminator 4
	lw	a5,-48(s0)
	addiw	a3,a5,1
	sw	a3,-48(s0)
	.loc 1 144 98 discriminator 4
	lbu	a4,0(a4)
	.loc 1 144 90 discriminator 4
	addi	a5,a5,-16
	add	a5,a5,s0
	sb	a4,-344(a5)
	.loc 1 144 73 discriminator 4
	lw	a5,-52(s0)
	addiw	a5,a5,1
	sw	a5,-52(s0)
.L48:
	.loc 1 144 35 discriminator 1
	lw	a5,-52(s0)
	ld	a4,-88(s0)
	add	a5,a4,a5
	lbu	a5,0(a5)
	.loc 1 144 39 discriminator 1
	beq	a5,zero,.L49
	.loc 1 144 39 is_stmt 0 discriminator 3
	lw	a5,-48(s0)
	sext.w	a4,a5
	li	a5,94
	ble	a4,a5,.L50
.L49:
.LBE28:
.LBB29:
	.loc 1 145 22 is_stmt 1
	sw	zero,-56(s0)
	.loc 1 145 13
	j	.L51
.L53:
	.loc 1 145 102 discriminator 4
	lw	a5,-48(s0)
	addiw	a4,a5,1
	sw	a4,-48(s0)
	.loc 1 145 117 discriminator 4
	lla	a3,g_cmdline
	lw	a4,-56(s0)
	add	a4,a3,a4
	lbu	a4,0(a4)
	.loc 1 145 106 discriminator 4
	addi	a5,a5,-16
	add	a5,a5,s0
	sb	a4,-344(a5)
	.loc 1 145 89 discriminator 4
	lw	a5,-56(s0)
	addiw	a5,a5,1
	sw	a5,-56(s0)
.L51:
	.loc 1 145 51 discriminator 1
	lla	a4,g_cmdline
	lw	a5,-56(s0)
	add	a5,a4,a5
	lbu	a5,0(a5)
	.loc 1 145 55 discriminator 1
	beq	a5,zero,.L52
	.loc 1 145 55 is_stmt 0 discriminator 3
	lw	a5,-48(s0)
	sext.w	a4,a5
	li	a5,94
	ble	a4,a5,.L53
.L52:
.LBE29:
	.loc 1 146 24 is_stmt 1
	lw	a5,-48(s0)
	addi	a5,a5,-16
	add	a5,a5,s0
	sb	zero,-344(a5)
	.loc 1 147 36
	addi	a5,s0,-360
	sd	a5,-136(s0)
	.loc 1 147 54
	sd	zero,-128(s0)
.LBB30:
	.loc 1 149 13
	ld	a5,-264(s0)
	mv	a0,a5
	addi	a5,s0,-264
	mv	a1,a5
	addi	a5,s0,-136
	mv	a2,a5
	li	a7,100
 #APP
# 149 "sh.c" 1
	ecall
# 0 "" 2
 #NO_APP
.LBE30:
	.loc 1 150 21
	ld	a5,-264(s0)
	.loc 1 150 16
	beq	a5,zero,.L54
	.loc 1 150 32 discriminator 1
	ld	a5,-264(s0)
	.loc 1 150 35 discriminator 1
	lbu	a5,0(a5)
	.loc 1 150 25 discriminator 1
	beq	a5,zero,.L54
	.loc 1 150 54 discriminator 2
	ld	a5,-264(s0)
	.loc 1 150 43 discriminator 2
	li	a1,47
	mv	a0,a5
	call	strchr
	mv	a5,a0
	.loc 1 150 39 discriminator 1
	bne	a5,zero,.L54
.LBB31:
	.loc 1 152 25
	li	a5,47
	sb	a5,-424(s0)
	.loc 1 153 21
	sw	zero,-60(s0)
	.loc 1 153 32
	j	.L55
.L57:
	.loc 1 153 90 discriminator 4
	ld	a4,-264(s0)
	.loc 1 153 93 discriminator 4
	lw	a5,-60(s0)
	add	a4,a4,a5
	.loc 1 153 80 discriminator 4
	lw	a5,-60(s0)
	addiw	a5,a5,1
	sext.w	a5,a5
	.loc 1 153 93 discriminator 4
	lbu	a4,0(a4)
	.loc 1 153 84 discriminator 4
	addi	a5,a5,-16
	add	a5,a5,s0
	sb	a4,-408(a5)
	.loc 1 153 99 discriminator 4
	lw	a5,-60(s0)
	addiw	a5,a5,1
	sw	a5,-60(s0)
.L55:
	.loc 1 153 37 discriminator 1
	ld	a4,-264(s0)
	.loc 1 153 40 discriminator 1
	lw	a5,-60(s0)
	add	a5,a4,a5
	lbu	a5,0(a5)
	.loc 1 153 44 discriminator 1
	beq	a5,zero,.L56
	.loc 1 153 44 is_stmt 0 discriminator 3
	lw	a5,-60(s0)
	sext.w	a4,a5
	li	a5,61
	ble	a4,a5,.L57
.L56:
	.loc 1 154 23 is_stmt 1
	lw	a5,-60(s0)
	addiw	a5,a5,1
	sext.w	a5,a5
	.loc 1 154 27
	addi	a5,a5,-16
	add	a5,a5,s0
	sb	zero,-408(a5)
	.loc 1 155 25
	addi	a5,s0,-424
	sd	a5,-264(s0)
.LBB32:
	.loc 1 156 17
	ld	a5,-264(s0)
	mv	a0,a5
	addi	a5,s0,-264
	mv	a1,a5
	addi	a5,s0,-136
	mv	a2,a5
	li	a7,100
 #APP
# 156 "sh.c" 1
	ecall
# 0 "" 2
 #NO_APP
.L54:
.LBE32:
.LBE31:
.LBB33:
	.loc 1 158 13
	li	a0,127
	li	a7,70
 #APP
# 158 "sh.c" 1
	ecall
# 0 "" 2
 #NO_APP
.L58:
	j	.L58
.L60:
.LBE33:
.LBE24:
.LBE18:
	.loc 1 162 12
	li	a5,1
	.loc 1 163 1
	mv	a0,a5
	ld	ra,440(sp)
	.cfi_restore 1
	ld	s0,432(sp)
	.cfi_restore 8
	.cfi_def_cfa 2, 448
	addi	sp,sp,448
	.cfi_def_cfa_offset 0
	jr	ra
	.cfi_endproc
.LFE5:
	.size	run_command, .-run_command
	.section	.rodata
	.align	3
.LC2:
	.string	"$ "
	.align	3
.LC3:
	.string	"\b \b"
	.align	3
.LC4:
	.string	"\r\n"
	.align	3
.LC5:
	.string	"ARG NUM ERROR"
	.align	3
.LC6:
	.string	"ERR MAX COMMAND"
	.align	3
.LC7:
	.string	"FILE NAME IS TOO LONG"
	.align	3
.LC8:
	.string	"ERR ARG NUM"
	.align	3
.LC9:
	.string	"cd"
	.align	3
.LC10:
	.string	"/"
	.align	3
.LC11:
	.string	"cd: failed\n"
	.text
	.align	1
	.globl	main
	.type	main, @function
main:
.LFB6:
	.loc 1 165 16
	.cfi_startproc
	addi	sp,sp,-1680
	.cfi_def_cfa_offset 1680
	sd	ra,1672(sp)
	sd	s0,1664(sp)
	.cfi_offset 1, -8
	.cfi_offset 8, -16
	addi	s0,sp,1680
	.cfi_def_cfa 8, 0
.L114:
.LBB34:
.LBB35:
	.loc 1 181 9
	li	a0,1
	lla	a5,.LC2
	mv	a1,a5
	li	a2,2
	li	a7,64
 #APP
# 181 "sh.c" 1
	ecall
# 0 "" 2
 #NO_APP
	sd	a0,-80(s0)
.LBE35:
	.loc 1 184 11
	sd	zero,-24(s0)
.L68:
.LBB36:
	.loc 1 186 13
	li	a0,0
	addi	a5,s0,-192
	mv	a1,a5
	li	a2,1
	li	a7,65
 #APP
# 186 "sh.c" 1
	ecall
# 0 "" 2
 #NO_APP
	sd	a0,-88(s0)
.LBE36:
.LBB37:
	.loc 1 187 13
	li	a0,1
	addi	a5,s0,-192
	mv	a1,a5
	li	a2,1
	li	a7,64
 #APP
# 187 "sh.c" 1
	ecall
# 0 "" 2
 #NO_APP
	sd	a0,-96(s0)
.LBE37:
	.loc 1 190 22
	lbu	a5,-192(s0)
	.loc 1 190 16
	mv	a4,a5
	li	a5,8
	beq	a4,a5,.L62
	.loc 1 190 41 discriminator 2
	lbu	a5,-192(s0)
	.loc 1 190 34 discriminator 2
	mv	a4,a5
	li	a5,127
	bne	a4,a5,.L63
.L62:
	.loc 1 190 53 discriminator 3
	ld	a5,-24(s0)
	ble	a5,zero,.L63
	.loc 1 192 18
	ld	a5,-24(s0)
	addi	a5,a5,-1
	sd	a5,-24(s0)
	.loc 1 193 24
	ld	a5,-24(s0)
	addi	a5,a5,-16
	add	a5,a5,s0
	sb	zero,-168(a5)
.LBB38:
	.loc 1 195 17
	li	a0,1
	lla	a5,.LC3
	mv	a1,a5
	li	a2,3
	li	a7,64
 #APP
# 195 "sh.c" 1
	ecall
# 0 "" 2
 #NO_APP
	sd	a0,-104(s0)
.LBE38:
	j	.L64
.L63:
	.loc 1 197 25
	lbu	a5,-192(s0)
	.loc 1 197 20
	mv	a4,a5
	li	a5,13
	beq	a4,a5,.L115
	.loc 1 200 25
	lbu	a5,-192(s0)
	.loc 1 200 20
	mv	a4,a5
	li	a5,10
	beq	a4,a5,.L116
	.loc 1 204 30
	lbu	a4,-192(s0)
	.loc 1 204 24
	ld	a5,-24(s0)
	addi	a5,a5,-16
	add	a5,a5,s0
	sb	a4,-168(a5)
	.loc 1 205 18
	ld	a5,-24(s0)
	addi	a5,a5,1
	sd	a5,-24(s0)
.L64:
	.loc 1 186 13
	j	.L68
.L115:
	.loc 1 198 17
	nop
	j	.L66
.L116:
	.loc 1 201 17
	nop
.L66:
	.loc 1 208 16
	ld	a5,-24(s0)
	addi	a5,a5,-16
	add	a5,a5,s0
	sb	zero,-168(a5)
.LBB39:
	.loc 1 212 9
	li	a0,1
	lla	a5,.LC4
	mv	a1,a5
	li	a2,2
	li	a7,64
 #APP
# 212 "sh.c" 1
	ecall
# 0 "" 2
 #NO_APP
	sd	a0,-112(s0)
.LBE39:
	.loc 1 214 13
	sw	zero,-44(s0)
	.loc 1 214 27
	j	.L69
.L71:
	.loc 1 214 77 discriminator 5
	lw	a5,-44(s0)
	addi	a5,a5,-16
	add	a5,a5,s0
	lbu	a4,-168(a5)
	.loc 1 214 72 discriminator 5
	lla	a3,g_cmdline
	lw	a5,-44(s0)
	add	a5,a3,a5
	sb	a4,0(a5)
	.loc 1 214 85 discriminator 5
	lw	a5,-44(s0)
	addiw	a5,a5,1
	sw	a5,-44(s0)
.L69:
	.loc 1 214 31 discriminator 1
	lw	a5,-44(s0)
	addi	a5,a5,-16
	add	a5,a5,s0
	lbu	a5,-168(a5)
	.loc 1 214 36 discriminator 1
	beq	a5,zero,.L70
	.loc 1 214 36 is_stmt 0 discriminator 3
	lw	a5,-44(s0)
	sext.w	a4,a5
	li	a5,62
	ble	a4,a5,.L71
.L70:
	.loc 1 214 105 is_stmt 1 discriminator 6
	lla	a4,g_cmdline
	lw	a5,-44(s0)
	add	a5,a4,a5
	sb	zero,0(a5)
	.loc 1 216 15
	lbu	a5,-184(s0)
	.loc 1 216 11
	beq	a5,zero,.L117
	.loc 1 220 22
	sw	zero,-28(s0)
	.loc 1 221 17
	sw	zero,-32(s0)
	.loc 1 222 11
	addi	a5,s0,-184
	sd	a5,-40(s0)
	.loc 1 223 11
	sd	zero,-24(s0)
	.loc 1 225 49
	lw	a4,-28(s0)
	li	a5,296
	mul	a5,a4,a5
	addi	a5,a5,-16
	add	a5,a5,s0
	sb	zero,-1396(a5)
.L107:
	.loc 1 228 16
	ld	a5,-40(s0)
	lbu	a5,0(a5)
	.loc 1 228 15
	mv	a4,a5
	li	a5,124
	bne	a4,a5,.L74
	.loc 1 230 19
	ld	a5,-24(s0)
	ble	a5,zero,.L75
	.loc 1 231 61
	lw	a5,-32(s0)
	lw	a3,-28(s0)
	slli	a4,a5,4
	li	a5,296
	mul	a5,a3,a5
	add	a5,a4,a5
	addi	a5,a5,-16
	add	a4,a5,s0
	ld	a5,-24(s0)
	add	a5,a4,a5
	sb	zero,-1656(a5)
	.loc 1 232 28
	lw	a5,-32(s0)
	addiw	a5,a5,1
	sw	a5,-32(s0)
	.loc 1 233 23
	lw	a5,-32(s0)
	sext.w	a4,a5
	li	a5,15
	ble	a4,a5,.L75
	.loc 1 234 25
	lla	a0,.LC5
	call	puts
	.loc 1 235 25
	j	.L76
.L75:
	.loc 1 238 18
	ld	a5,-40(s0)
	addi	a5,a5,1
	sd	a5,-40(s0)
	.loc 1 239 22
	j	.L77
.L78:
	.loc 1 240 22
	ld	a5,-40(s0)
	addi	a5,a5,1
	sd	a5,-40(s0)
.L77:
	.loc 1 239 23
	ld	a5,-40(s0)
	lbu	a5,0(a5)
	.loc 1 239 33
	mv	a4,a5
	li	a5,32
	beq	a4,a5,.L78
	.loc 1 239 36 discriminator 1
	ld	a5,-40(s0)
	lbu	a5,0(a5)
	.loc 1 239 33 discriminator 1
	mv	a4,a5
	li	a5,9
	beq	a4,a5,.L78
	.loc 1 242 48
	lw	a4,-28(s0)
	li	a5,296
	mul	a5,a4,a5
	addi	a5,a5,-16
	add	a5,a5,s0
	lw	a4,-32(s0)
	sw	a4,-1400(a5)
	.loc 1 244 29
	lw	a5,-28(s0)
	addiw	a5,a5,1
	sw	a5,-28(s0)
	.loc 1 245 19
	sd	zero,-24(s0)
	.loc 1 246 25
	sw	zero,-32(s0)
	.loc 1 248 57
	lw	a4,-28(s0)
	li	a5,296
	mul	a5,a4,a5
	addi	a5,a5,-16
	add	a5,a5,s0
	sb	zero,-1396(a5)
	.loc 1 250 19
	lw	a5,-28(s0)
	sext.w	a4,a5
	li	a5,4
	ble	a4,a5,.L107
	.loc 1 251 21
	lla	a0,.LC6
	call	puts
	.loc 1 252 21
	j	.L76
.L74:
	.loc 1 255 21
	ld	a5,-40(s0)
	lbu	a5,0(a5)
	.loc 1 255 20
	mv	a4,a5
	li	a5,62
	bne	a4,a5,.L80
	.loc 1 255 37 discriminator 1
	ld	a5,-40(s0)
	addi	a5,a5,1
	.loc 1 255 34 discriminator 1
	lbu	a5,0(a5)
	.loc 1 255 31 discriminator 1
	mv	a4,a5
	li	a5,62
	beq	a4,a5,.L80
.LBB40:
	.loc 1 257 19
	ld	a5,-24(s0)
	ble	a5,zero,.L81
	.loc 1 258 61
	lw	a5,-32(s0)
	lw	a3,-28(s0)
	slli	a4,a5,4
	li	a5,296
	mul	a5,a3,a5
	add	a5,a4,a5
	addi	a5,a5,-16
	add	a4,a5,s0
	ld	a5,-24(s0)
	add	a5,a4,a5
	sb	zero,-1656(a5)
	.loc 1 259 28
	lw	a5,-32(s0)
	addiw	a5,a5,1
	sw	a5,-32(s0)
	.loc 1 260 23
	lw	a5,-32(s0)
	sext.w	a4,a5
	li	a5,15
	ble	a4,a5,.L82
	.loc 1 261 25
	lla	a0,.LC5
	call	puts
	.loc 1 262 25
	j	.L76
.L82:
	.loc 1 264 23
	sd	zero,-24(s0)
.L81:
	.loc 1 266 18
	ld	a5,-40(s0)
	addi	a5,a5,1
	sd	a5,-40(s0)
	.loc 1 267 22
	j	.L83
.L84:
	.loc 1 268 22
	ld	a5,-40(s0)
	addi	a5,a5,1
	sd	a5,-40(s0)
.L83:
	.loc 1 267 23
	ld	a5,-40(s0)
	lbu	a5,0(a5)
	.loc 1 267 33
	mv	a4,a5
	li	a5,32
	beq	a4,a5,.L84
	.loc 1 267 36 discriminator 1
	ld	a5,-40(s0)
	lbu	a5,0(a5)
	.loc 1 267 33 discriminator 1
	mv	a4,a5
	li	a5,9
	beq	a4,a5,.L84
	.loc 1 271 21
	sw	zero,-48(s0)
	.loc 1 273 22
	j	.L85
.L87:
	.loc 1 274 67
	ld	a5,-40(s0)
	addi	a4,a5,1
	sd	a4,-40(s0)
	.loc 1 274 59
	lw	a4,-48(s0)
	addiw	a3,a4,1
	sw	a3,-48(s0)
	.loc 1 274 65
	lbu	a3,0(a5)
	.loc 1 274 63
	lw	a2,-28(s0)
	li	a5,296
	mul	a5,a2,a5
	addi	a5,a5,-16
	add	a5,a5,s0
	add	a5,a5,a4
	sb	a3,-1396(a5)
	.loc 1 276 23
	lw	a5,-48(s0)
	sext.w	a4,a5
	li	a5,32
	ble	a4,a5,.L85
	.loc 1 277 25
	lla	a0,.LC7
	call	puts
.LBB41:
	.loc 1 278 25
	li	a0,2
	li	a7,70
 #APP
# 278 "sh.c" 1
	ecall
# 0 "" 2
 #NO_APP
.L86:
	j	.L86
.L85:
.LBE41:
	.loc 1 273 23
	ld	a5,-40(s0)
	lbu	a5,0(a5)
	mv	a0,a5
	call	xisalnum
	mv	a5,a0
	.loc 1 273 75 discriminator 1
	bne	a5,zero,.L87
	.loc 1 273 39 discriminator 1
	ld	a5,-40(s0)
	lbu	a5,0(a5)
	.loc 1 273 36 discriminator 1
	mv	a4,a5
	li	a5,46
	beq	a4,a5,.L87
	.loc 1 273 52 discriminator 2
	ld	a5,-40(s0)
	lbu	a5,0(a5)
	.loc 1 273 49 discriminator 2
	mv	a4,a5
	li	a5,95
	beq	a4,a5,.L87
	.loc 1 273 65 discriminator 3
	ld	a5,-40(s0)
	lbu	a5,0(a5)
	.loc 1 273 62 discriminator 3
	mv	a4,a5
	li	a5,45
	beq	a4,a5,.L87
	.loc 1 273 78 discriminator 4
	ld	a5,-40(s0)
	lbu	a5,0(a5)
	.loc 1 273 75 discriminator 4
	mv	a4,a5
	li	a5,47
	beq	a4,a5,.L87
	.loc 1 281 57
	lw	a4,-48(s0)
	lw	a3,-28(s0)
	li	a5,296
	mul	a5,a3,a5
	addi	a5,a5,-16
	add	a5,a5,s0
	add	a5,a5,a4
	sb	zero,-1396(a5)
	.loc 1 282 56
	lw	a4,-28(s0)
	li	a5,296
	mul	a5,a4,a5
	addi	a5,a5,-16
	add	a5,a5,s0
	sw	zero,-1364(a5)
	.loc 1 284 22
	j	.L88
.L89:
	.loc 1 285 22
	ld	a5,-40(s0)
	addi	a5,a5,1
	sd	a5,-40(s0)
.L88:
	.loc 1 284 23
	ld	a5,-40(s0)
	lbu	a5,0(a5)
	.loc 1 284 33
	mv	a4,a5
	li	a5,32
	beq	a4,a5,.L89
	.loc 1 284 36 discriminator 1
	ld	a5,-40(s0)
	lbu	a5,0(a5)
	.loc 1 284 33 discriminator 1
	mv	a4,a5
	li	a5,9
	beq	a4,a5,.L89
.LBE40:
	.loc 1 255 49
	j	.L79
.L80:
	.loc 1 288 21
	ld	a5,-40(s0)
	lbu	a5,0(a5)
	.loc 1 288 20
	mv	a4,a5
	li	a5,62
	bne	a4,a5,.L90
	.loc 1 288 37 discriminator 1
	ld	a5,-40(s0)
	addi	a5,a5,1
	.loc 1 288 34 discriminator 1
	lbu	a5,0(a5)
	.loc 1 288 31 discriminator 1
	mv	a4,a5
	li	a5,62
	bne	a4,a5,.L90
.LBB42:
	.loc 1 290 19
	ld	a5,-24(s0)
	ble	a5,zero,.L91
	.loc 1 291 61
	lw	a5,-32(s0)
	lw	a3,-28(s0)
	slli	a4,a5,4
	li	a5,296
	mul	a5,a3,a5
	add	a5,a4,a5
	addi	a5,a5,-16
	add	a4,a5,s0
	ld	a5,-24(s0)
	add	a5,a4,a5
	sb	zero,-1656(a5)
	.loc 1 292 28
	lw	a5,-32(s0)
	addiw	a5,a5,1
	sw	a5,-32(s0)
	.loc 1 293 23
	lw	a5,-32(s0)
	sext.w	a4,a5
	li	a5,15
	ble	a4,a5,.L92
	.loc 1 294 25
	lla	a0,.LC5
	call	puts
	.loc 1 295 25
	j	.L76
.L92:
	.loc 1 297 23
	sd	zero,-24(s0)
.L91:
	.loc 1 300 19
	ld	a5,-40(s0)
	addi	a5,a5,2
	sd	a5,-40(s0)
	.loc 1 301 22
	j	.L93
.L94:
	.loc 1 302 22
	ld	a5,-40(s0)
	addi	a5,a5,1
	sd	a5,-40(s0)
.L93:
	.loc 1 301 23
	ld	a5,-40(s0)
	lbu	a5,0(a5)
	.loc 1 301 33
	mv	a4,a5
	li	a5,32
	beq	a4,a5,.L94
	.loc 1 301 36 discriminator 1
	ld	a5,-40(s0)
	lbu	a5,0(a5)
	.loc 1 301 33 discriminator 1
	mv	a4,a5
	li	a5,9
	beq	a4,a5,.L94
	.loc 1 305 21
	sw	zero,-52(s0)
	.loc 1 307 22
	j	.L95
.L97:
	.loc 1 308 67
	ld	a5,-40(s0)
	addi	a4,a5,1
	sd	a4,-40(s0)
	.loc 1 308 59
	lw	a4,-52(s0)
	addiw	a3,a4,1
	sw	a3,-52(s0)
	.loc 1 308 65
	lbu	a3,0(a5)
	.loc 1 308 63
	lw	a2,-28(s0)
	li	a5,296
	mul	a5,a2,a5
	addi	a5,a5,-16
	add	a5,a5,s0
	add	a5,a5,a4
	sb	a3,-1396(a5)
	.loc 1 310 23
	lw	a5,-52(s0)
	sext.w	a4,a5
	li	a5,32
	ble	a4,a5,.L95
	.loc 1 311 25
	lla	a0,.LC7
	call	puts
.LBB43:
	.loc 1 312 25
	li	a0,2
	li	a7,70
 #APP
# 312 "sh.c" 1
	ecall
# 0 "" 2
 #NO_APP
.L96:
	j	.L96
.L95:
.LBE43:
	.loc 1 307 23
	ld	a5,-40(s0)
	lbu	a5,0(a5)
	mv	a0,a5
	call	xisalnum
	mv	a5,a0
	.loc 1 307 75 discriminator 1
	bne	a5,zero,.L97
	.loc 1 307 39 discriminator 1
	ld	a5,-40(s0)
	lbu	a5,0(a5)
	.loc 1 307 36 discriminator 1
	mv	a4,a5
	li	a5,46
	beq	a4,a5,.L97
	.loc 1 307 52 discriminator 2
	ld	a5,-40(s0)
	lbu	a5,0(a5)
	.loc 1 307 49 discriminator 2
	mv	a4,a5
	li	a5,95
	beq	a4,a5,.L97
	.loc 1 307 65 discriminator 3
	ld	a5,-40(s0)
	lbu	a5,0(a5)
	.loc 1 307 62 discriminator 3
	mv	a4,a5
	li	a5,45
	beq	a4,a5,.L97
	.loc 1 307 78 discriminator 4
	ld	a5,-40(s0)
	lbu	a5,0(a5)
	.loc 1 307 75 discriminator 4
	mv	a4,a5
	li	a5,47
	beq	a4,a5,.L97
	.loc 1 315 57
	lw	a4,-52(s0)
	lw	a3,-28(s0)
	li	a5,296
	mul	a5,a3,a5
	addi	a5,a5,-16
	add	a5,a5,s0
	add	a5,a5,a4
	sb	zero,-1396(a5)
	.loc 1 316 56
	lw	a4,-28(s0)
	li	a5,296
	mul	a5,a4,a5
	addi	a5,a5,-16
	add	a5,a5,s0
	li	a4,1
	sw	a4,-1364(a5)
	.loc 1 318 22
	j	.L98
.L99:
	.loc 1 319 22
	ld	a5,-40(s0)
	addi	a5,a5,1
	sd	a5,-40(s0)
.L98:
	.loc 1 318 23
	ld	a5,-40(s0)
	lbu	a5,0(a5)
	.loc 1 318 33
	mv	a4,a5
	li	a5,32
	beq	a4,a5,.L99
	.loc 1 318 36 discriminator 1
	ld	a5,-40(s0)
	lbu	a5,0(a5)
	.loc 1 318 33 discriminator 1
	mv	a4,a5
	li	a5,9
	beq	a4,a5,.L99
.LBE42:
	.loc 1 288 49
	j	.L79
.L90:
	.loc 1 322 21
	ld	a5,-40(s0)
	lbu	a5,0(a5)
	.loc 1 322 20
	mv	a4,a5
	li	a5,32
	beq	a4,a5,.L102
	.loc 1 322 34 discriminator 1
	ld	a5,-40(s0)
	lbu	a5,0(a5)
	.loc 1 322 31 discriminator 1
	mv	a4,a5
	li	a5,9
	bne	a4,a5,.L101
	.loc 1 323 22
	j	.L102
.L103:
	.loc 1 324 22
	ld	a5,-40(s0)
	addi	a5,a5,1
	sd	a5,-40(s0)
.L102:
	.loc 1 323 23
	ld	a5,-40(s0)
	lbu	a5,0(a5)
	.loc 1 323 33
	mv	a4,a5
	li	a5,32
	beq	a4,a5,.L103
	.loc 1 323 36 discriminator 1
	ld	a5,-40(s0)
	lbu	a5,0(a5)
	.loc 1 323 33 discriminator 1
	mv	a4,a5
	li	a5,9
	beq	a4,a5,.L103
	.loc 1 326 19
	ld	a5,-24(s0)
	ble	a5,zero,.L118
	.loc 1 327 61
	lw	a5,-32(s0)
	lw	a3,-28(s0)
	slli	a4,a5,4
	li	a5,296
	mul	a5,a3,a5
	add	a5,a4,a5
	addi	a5,a5,-16
	add	a4,a5,s0
	ld	a5,-24(s0)
	add	a5,a4,a5
	sb	zero,-1656(a5)
	.loc 1 328 28
	lw	a5,-32(s0)
	addiw	a5,a5,1
	sw	a5,-32(s0)
	.loc 1 329 23
	sd	zero,-24(s0)
	.loc 1 330 23
	lw	a5,-32(s0)
	sext.w	a4,a5
	li	a5,15
	ble	a4,a5,.L118
	.loc 1 331 25
	lla	a0,.LC5
	call	puts
	.loc 1 332 25
	j	.L76
.L101:
	.loc 1 337 21
	ld	a5,-40(s0)
	lbu	a5,0(a5)
	.loc 1 337 20
	bne	a5,zero,.L105
	.loc 1 339 20
	ld	a5,-24(s0)
	ble	a5,zero,.L106
	.loc 1 340 61
	lw	a5,-32(s0)
	lw	a3,-28(s0)
	slli	a4,a5,4
	li	a5,296
	mul	a5,a3,a5
	add	a5,a4,a5
	addi	a5,a5,-16
	add	a4,a5,s0
	ld	a5,-24(s0)
	add	a5,a4,a5
	sb	zero,-1656(a5)
	.loc 1 341 28
	lw	a5,-32(s0)
	addiw	a5,a5,1
	sw	a5,-32(s0)
	.loc 1 342 23
	sd	zero,-24(s0)
.L106:
	.loc 1 345 48
	lw	a4,-28(s0)
	li	a5,296
	mul	a5,a4,a5
	addi	a5,a5,-16
	add	a5,a5,s0
	lw	a4,-32(s0)
	sw	a4,-1400(a5)
	.loc 1 346 29
	lw	a5,-28(s0)
	addiw	a5,a5,1
	sw	a5,-28(s0)
	.loc 1 347 17
	j	.L76
.L105:
	.loc 1 350 59
	ld	a5,-40(s0)
	lbu	a4,0(a5)
	.loc 1 350 57
	lw	a5,-32(s0)
	lw	a2,-28(s0)
	slli	a3,a5,4
	li	a5,296
	mul	a5,a2,a5
	add	a5,a3,a5
	addi	a5,a5,-16
	add	a3,a5,s0
	ld	a5,-24(s0)
	add	a5,a3,a5
	sb	a4,-1656(a5)
	.loc 1 351 18
	ld	a5,-40(s0)
	addi	a5,a5,1
	sd	a5,-40(s0)
	.loc 1 352 18
	ld	a5,-24(s0)
	addi	a5,a5,1
	sd	a5,-24(s0)
	.loc 1 354 19
	ld	a4,-24(s0)
	li	a5,15
	ble	a4,a5,.L107
	.loc 1 355 21
	lla	a0,.LC8
	call	puts
	.loc 1 356 21
	j	.L76
.L118:
	.loc 1 326 19
	nop
.L79:
	.loc 1 228 15
	j	.L107
.L76:
	.loc 1 362 12
	lw	a5,-28(s0)
	sext.w	a4,a5
	li	a5,1
	bne	a4,a5,.L108
	.loc 1 362 45 discriminator 1
	lw	a5,-1416(s0)
	.loc 1 362 31 discriminator 1
	ble	a5,zero,.L108
	.loc 1 362 62 discriminator 2
	addi	a5,s0,-1672
	lla	a1,.LC9
	mv	a0,a5
	call	strcmp
	mv	a5,a0
	.loc 1 362 59 discriminator 1
	bne	a5,zero,.L108
.LBB44:
	.loc 1 363 25
	lla	a5,.LC10
	sd	a5,-64(s0)
	.loc 1 364 28
	lw	a4,-1416(s0)
	.loc 1 364 16
	li	a5,1
	ble	a4,a5,.L109
	.loc 1 364 64 discriminator 1
	lbu	a5,-1656(s0)
	.loc 1 364 42 discriminator 1
	beq	a5,zero,.L109
	.loc 1 365 24
	addi	a5,s0,-1672
	addi	a5,a5,16
	sd	a5,-64(s0)
.L109:
.LBB45:
	.loc 1 367 22
	ld	a5,-64(s0)
	mv	a0,a5
	li	a7,80
 #APP
# 367 "sh.c" 1
	ecall
# 0 "" 2
 #NO_APP
	mv	a5,a0
	sext.w	a5,a5
.LBE45:
	.loc 1 367 17
	sw	a5,-116(s0)
	.loc 1 368 16
	lw	a5,-116(s0)
	sext.w	a5,a5
	bge	a5,zero,.L119
	.loc 1 369 17
	lla	a0,.LC11
	call	puts
	.loc 1 371 13
	j	.L119
.L108:
.LBE44:
.LBB46:
	.loc 1 374 15
	li	a7,68
 #APP
# 374 "sh.c" 1
	ecall
# 0 "" 2
 #NO_APP
	mv	a5,a0
.LBE46:
	.loc 1 374 13
	sw	a5,-120(s0)
	.loc 1 376 11
	lw	a5,-120(s0)
	sext.w	a5,a5
	bne	a5,zero,.L111
	.loc 1 377 13
	lw	a4,-28(s0)
	addi	a5,s0,-1672
	mv	a2,a4
	mv	a1,a5
	li	a0,0
	call	run_command
	j	.L114
.L111:
.LBB47:
	.loc 1 380 21
	sw	zero,-68(s0)
	.loc 1 380 13
	j	.L112
.L113:
.LBB48:
.LBB49:
	.loc 1 382 17
	addi	a5,s0,-1676
	mv	a0,a5
	li	a7,71
 #APP
# 382 "sh.c" 1
	ecall
# 0 "" 2
 #NO_APP
.LBE49:
.LBE48:
	.loc 1 380 43 discriminator 3
	lw	a5,-68(s0)
	addiw	a5,a5,1
	sw	a5,-68(s0)
.L112:
	.loc 1 380 27 discriminator 1
	lw	a5,-68(s0)
	mv	a4,a5
	lw	a5,-28(s0)
	sext.w	a4,a4
	sext.w	a5,a5
	blt	a4,a5,.L113
	j	.L114
.L117:
.LBE47:
	.loc 1 217 13
	nop
	j	.L114
.L119:
.LBB50:
	.loc 1 371 13
	nop
.LBE50:
.LBE34:
	.loc 1 178 14
	j	.L114
	.cfi_endproc
.LFE6:
	.size	main, .-main
.Letext0:
	.file 2 "minux.h"
	.section	.note.GNU-stack,"",@progbits
